(dp1
S'6_4'
p2
(dp3
S'fouls'
p4
I846
sS'subs'
p5
I192
ssS'6_5'
p6
(dp7
g4
I275
sg5
I160
ssS'6_6'
p8
(dp9
g4
I22
sg5
I20
ssS'6_1'
p10
(dp11
g4
I1372
sg5
I188
ssS'6_2'
p12
(dp13
g4
I1876
sg5
I293
ssS'6_3'
p14
(dp15
g4
I1519
sg5
I272
ssS'1_3'
p16
(dp17
g4
I63
sg5
I52
ssS'1_2'
p18
(dp19
g4
I1289
sg5
I814
ssS'1_1'
p20
(dp21
g4
I5502
sg5
I882
ssS'7_5'
p22
(dp23
g4
I928
sg5
I278
ssS'7_4'
p24
(dp25
g4
I1771
sg5
I305
ssS'7_7'
p26
(dp27
g4
I1
sg5
I0
ssS'7_6'
p28
(dp29
g4
I192
sg5
I184
ssS'7_1'
p30
(dp31
g4
I1424
sg5
I174
ssS'0_3'
p32
(dp33
g4
I6
sg5
I5
ssS'7_3'
p34
(dp35
g4
I2385
sg5
I380
ssS'7_2'
p36
(dp37
g4
I2204
sg5
I354
ssS'3_1'
p38
(dp39
g4
I3747
sg5
I594
ssS'3_3'
p40
(dp41
g4
I969
sg5
I796
ssS'3_2'
p42
(dp43
g4
I3142
sg5
I847
ssS'3_4'
p44
(dp45
g4
I36
sg5
I32
ssS'0_1'
p46
(dp47
g4
I3244
sg5
I136
ssS'2_1'
p48
(dp49
g4
I3496
sg5
I522
ssS'2_2'
p50
(dp51
g4
I1550
sg5
I472
ssS'2_3'
p52
(dp53
g4
I298
sg5
I251
ssS'2_4'
p54
(dp55
g4
I2
sg5
I2
ssS'5_3'
p56
(dp57
g4
I2207
sg5
I493
ssS'5_2'
p58
(dp59
g4
I2855
sg5
I410
ssS'5_1'
p60
(dp61
g4
I2124
sg5
I239
ssS'5_6'
p62
(dp63
g4
I2
sg5
I2
ssS'5_5'
p64
(dp65
g4
I87
sg5
I64
ssS'5_4'
p66
(dp67
g4
I921
sg5
I557
ssS'4_2'
p68
(dp69
g4
I2051
sg5
I97
ssS'4_3'
p70
(dp71
g4
I1349
sg5
I152
ssS'4_1'
p72
(dp73
g4
I1396
sg5
I45
ssS'4_6'
p74
(dp75
g4
I1
sg5
I1
ssS'4_4'
p76
(dp77
g4
I410
sg5
I279
ssS'4_5'
p78
(dp79
g4
I22
sg5
I20
ssS'0_2'
p80
(dp81
g4
I296
sg5
I215
ss.