(dp1
S'6_4'
p2
(dp3
S'fouls'
p4
I856
sS'subs'
p5
I699
ssS'6_5'
p6
(dp7
g4
I289
sg5
I264
ssS'6_6'
p8
(dp9
g4
I35
sg5
I35
ssS'2_3'
p10
(dp11
g4
I309
sg5
I305
ssS'6_1'
p12
(dp13
g4
I1391
sg5
I1054
ssS'6_2'
p14
(dp15
g4
I1885
sg5
I1456
ssS'6_3'
p16
(dp17
g4
I1539
sg5
I1220
ssS'2_4'
p18
(dp19
g4
I10
sg5
I9
ssS'13_5'
p20
(dp21
g4
I1
sg5
I0
ssS'13_4'
p22
(dp23
g4
I1
sg5
I0
ssS'13_6'
p24
(dp25
g4
I1
sg5
I0
ssS'11_7'
p26
(dp27
g4
I1
sg5
I0
ssS'0_4'
p28
(dp29
g4
I1
sg5
I0
ssS'6_7'
p30
(dp31
g4
I1
sg5
I1
ssS'1_3'
p32
(dp33
g4
I65
sg5
I56
ssS'1_2'
p34
(dp35
g4
I1308
sg5
I947
ssS'1_1'
p36
(dp37
g4
I5538
sg5
I2291
ssS'11_6'
p38
(dp39
g4
I7
sg5
I0
ssS'7_5'
p40
(dp41
g4
I966
sg5
I473
ssS'7_4'
p42
(dp43
g4
I1813
sg5
I705
ssS'7_7'
p44
(dp45
g4
I16
sg5
I14
ssS'7_6'
p46
(dp47
g4
I232
sg5
I199
ssS'7_1'
p48
(dp49
g4
I1451
sg5
I411
ssS'0_3'
p50
(dp51
g4
I10
sg5
I9
ssS'7_3'
p52
(dp53
g4
I2393
sg5
I851
ssS'7_2'
p54
(dp55
g4
I2196
sg5
I781
ssS'3_1'
p56
(dp57
g4
I3798
sg5
I1371
ssS'3_3'
p58
(dp59
g4
I1009
sg5
I877
ssS'3_2'
p60
(dp61
g4
I3184
sg5
I1728
ssS'3_5'
p62
(dp63
g4
I3
sg5
I2
ssS'3_4'
p64
(dp65
g4
I66
sg5
I55
ssS'15_2'
p66
(dp67
g4
I1
sg5
I0
ssS'0_1'
p68
(dp69
g4
I3254
sg5
I2924
ssS'2_1'
p70
(dp71
g4
I3516
sg5
I3176
ssS'2_2'
p72
(dp73
g4
I1560
sg5
I1461
ssS'9_4'
p74
(dp75
g4
I104
sg5
I0
ssS'9_3'
p76
(dp77
g4
I105
sg5
I0
ssS'9_2'
p78
(dp79
g4
I67
sg5
I0
ssS'9_1'
p80
(dp81
g4
I37
sg5
I0
ssS'11_2'
p82
(dp83
g4
I6
sg5
I0
ssS'5_3'
p84
(dp85
g4
I2239
sg5
I1130
ssS'5_2'
p86
(dp87
g4
I2872
sg5
I1134
ssS'5_1'
p88
(dp89
g4
I2156
sg5
I667
ssS'11_4'
p90
(dp91
g4
I12
sg5
I0
ssS'5_6'
p92
(dp93
g4
I8
sg5
I6
ssS'5_5'
p94
(dp95
g4
I118
sg5
I91
ssS'5_4'
p96
(dp97
g4
I969
sg5
I687
ssS'4_2'
p98
(dp99
g4
I2072
sg5
I1748
ssS'4_3'
p100
(dp101
g4
I1375
sg5
I1217
ssS'4_1'
p102
(dp103
g4
I1421
sg5
I1117
ssS'4_6'
p104
(dp105
g4
I4
sg5
I3
ssS'4_4'
p106
(dp107
g4
I436
sg5
I421
ssS'4_5'
p108
(dp109
g4
I39
sg5
I36
ssS'15_5'
p110
(dp111
g4
I1
sg5
I0
ssS'11_3'
p112
(dp113
g4
I5
sg5
I0
ssS'15_4'
p114
(dp115
g4
I1
sg5
I0
ssS'0_2'
p116
(dp117
g4
I298
sg5
I296
ssS'15_6'
p118
(dp119
g4
I1
sg5
I0
ssS'11_1'
p120
(dp121
g4
I1
sg5
I0
ssS'9_6'
p122
(dp123
g4
I32
sg5
I0
ssS'11_5'
p124
(dp125
g4
I10
sg5
I0
ssS'9_5'
p126
(dp127
g4
I82
sg5
I0
ss.