(dp1
S'MIL'
p2
F42
sS'GSW'
p3
F67
sS'MIN'
p4
F31
sS'MIA'
p5
F41
sS'ATL'
p6
F43
sS'BOS'
p7
F53
sS'DET'
p8
F37
sS'NYK'
p9
F31
sS'DEN'
p10
F40
sS'DAL'
p11
F33
sS'BKN'
p12
F20
sS'POR'
p13
F41
sS'OKC'
p14
F47
sS'TOR'
p15
F51
sS'CHI'
p16
F41
sS'SAS'
p17
F61
sS'CHA'
p18
F36
sS'UTA'
p19
F51
sS'CLE'
p20
F51
sS'HOU'
p21
F55
sS'WAS'
p22
F49
sS'LAL'
p23
F26
sS'PHI'
p24
F28
sS'MEM'
p25
F43
sS'LAC'
p26
F51
sS'SAC'
p27
F32
sS'ORL'
p28
F29
sS'PHX'
p29
F24
sS'IND'
p30
F42
sS'NOP'
p31
F34
s.