(dp1
S'MIL'
p2
S'forestgreen'
p3
sS'GSW'
p4
S'gold'
p5
sS'MIN'
p6
S'midnightblue'
p7
sS'MIA'
p8
S'darkorange'
p9
sS'ATL'
p10
S'orangered'
p11
sS'BOS'
p12
S'limegreen'
p13
sS'DET'
p14
S'b'
sS'NYK'
p15
S'orange'
p16
sS'DEN'
p17
S'deepskyblue'
p18
sS'DAL'
p19
S'royalblue'
p20
sS'BKN'
p21
S'dimgray'
p22
sS'POR'
p23
S'r'
sS'OKC'
p24
g18
sS'TOR'
p25
S'r'
sS'CHI'
p26
S'crimson'
p27
sS'SAS'
p28
S'gray'
p29
sS'CHA'
p30
S'c'
sS'UTA'
p31
S'indigo'
p32
sS'CLE'
p33
S'maroon'
p34
sS'HOU'
p35
S'red'
p36
sS'WAS'
p37
g11
sS'LAL'
p38
S'm'
sS'PHI'
p39
g20
sS'MEM'
p40
S'darkblue'
p41
sS'LAC'
p42
S'firebrick'
p43
sS'SAC'
p44
S'purple'
p45
sS'ORL'
p46
S'b'
sS'PHX'
p47
S'darkviolet'
p48
sS'IND'
p49
S'yellow'
p50
sS'NOP'
p51
S'darkgoldenrod'
p52
s.