(dp1
S'Hassan Whiteside'
p2
(dp3
S'3_3'
p4
(dp5
S'Time_50'
p6
(lp7
sS'GameID'
p8
(lp9
cnumpy.core.multiarray
scalar
p10
(cnumpy
dtype
p11
(S'S13'
I0
I1
tRp12
(I3
S'|'
NNNI13
I1
I0
tbS'="0021600049"'
tRp13
ag10
(g11
(S'S13'
I0
I1
tRp14
(I3
S'|'
NNNI13
I1
I0
tbS'="0021600473"'
tRp15
ag10
(g11
(S'S13'
I0
I1
tRp16
(I3
S'|'
NNNI13
I1
I0
tbS'="0021600799"'
tRp17
ag10
(g11
(S'S13'
I0
I1
tRp18
(I3
S'|'
NNNI13
I1
I0
tbS'="0021601165"'
tRp19
asS'MP_event'
p20
(lp21
F11.783333333333331
aF15.083333333333336
aF13.549999999999997
aF13.550000000000001
asS'MP_game'
p22
(lp23
F22.749999999999993
aF19
aF25.066666666666666
aF26.466666666666672
asS'Fouls_game'
p24
(lp25
I5
aI4
aI4
aI3
asS'Time_90'
p26
(lp27
ssS'1_2'
p28
(dp29
g6
(lp30
sg8
(lp31
g10
(g11
(S'S13'
I0
I1
tRp32
(I3
S'|'
NNNI13
I1
I0
tbS'="0021600004"'
tRp33
ag10
(g11
(S'S13'
I0
I1
tRp34
(I3
S'|'
NNNI13
I1
I0
tbS'="0021600037"'
tRp35
ag10
(g11
(S'S13'
I0
I1
tRp36
(I3
S'|'
NNNI13
I1
I0
tbS'="0021600170"'
tRp37
ag10
(g11
(S'S13'
I0
I1
tRp38
(I3
S'|'
NNNI13
I1
I0
tbS'="0021600199"'
tRp39
ag10
(g11
(S'S13'
I0
I1
tRp40
(I3
S'|'
NNNI13
I1
I0
tbS'="0021600243"'
tRp41
ag10
(g11
(S'S13'
I0
I1
tRp42
(I3
S'|'
NNNI13
I1
I0
tbS'="0021600377"'
tRp43
ag10
(g11
(S'S13'
I0
I1
tRp44
(I3
S'|'
NNNI13
I1
I0
tbS'="0021600397"'
tRp45
ag10
(g11
(S'S13'
I0
I1
tRp46
(I3
S'|'
NNNI13
I1
I0
tbS'="0021600637"'
tRp47
ag10
(g11
(S'S13'
I0
I1
tRp48
(I3
S'|'
NNNI13
I1
I0
tbS'="0021600841"'
tRp49
ag10
(g11
(S'S13'
I0
I1
tRp50
(I3
S'|'
NNNI13
I1
I0
tbS'="0021600863"'
tRp51
asg20
(lp52
F9.4166666666666661
aF10.783333333333333
aF6.2833333333333332
aF11.216666666666667
aF7.8833333333333337
aF11.216666666666667
aF10.033333333333333
aF5.3166666666666682
aF6.5999999999999996
aF8.6166666666666671
asg22
(lp53
F25.81666666666667
aF34.949999999999996
aF29.433333333333334
aF30.366666666666667
aF26.149999999999999
aF28.533333333333331
aF30.716666666666669
aF28.766666666666673
aF31.416666666666671
aF24.583333333333332
asg24
(lp54
I3
aI2
aI3
aI5
aI4
aI3
aI4
aI2
aI4
aI2
asg26
(lp55
ssS'5_4'
p56
(dp57
g6
(lp58
sg8
(lp59
g10
(g11
(S'S13'
I0
I1
tRp60
(I3
S'|'
NNNI13
I1
I0
tbS'="0021600350"'
tRp61
ag10
(g11
(S'S13'
I0
I1
tRp62
(I3
S'|'
NNNI13
I1
I0
tbS'="0021601041"'
tRp63
ag10
(g11
(S'S13'
I0
I1
tRp64
(I3
S'|'
NNNI13
I1
I0
tbS'="0021601068"'
tRp65
asg20
(lp66
F27.033333333333331
aF25.116666666666664
aF22.616666666666667
asg22
(lp67
F27.033333333333331
aF26.300000000000004
aF30.25
asg24
(lp68
I5
aI5
aI4
asg26
(lp69
sssS'Nikola Jokic'
p70
(dp71
g4
(dp72
g6
(lp73
sg8
(lp74
g10
(g11
(S'S13'
I0
I1
tRp75
(I3
S'|'
NNNI13
I1
I0
tbS'="0021600386"'
tRp76
ag10
(g11
(S'S13'
I0
I1
tRp77
(I3
S'|'
NNNI13
I1
I0
tbS'="0021600426"'
tRp78
ag10
(g11
(S'S13'
I0
I1
tRp79
(I3
S'|'
NNNI13
I1
I0
tbS'="0021600500"'
tRp80
ag10
(g11
(S'S13'
I0
I1
tRp81
(I3
S'|'
NNNI13
I1
I0
tbS'="0021600785"'
tRp82
ag10
(g11
(S'S13'
I0
I1
tRp83
(I3
S'|'
NNNI13
I1
I0
tbS'="0021601198"'
tRp84
asg20
(lp85
F14.566666666666663
aF8.4833333333333307
aF11.700000000000001
aF13.716666666666667
aF16.383333333333329
asg22
(lp86
F19.383333333333333
aF14.499999999999996
aF22.116666666666664
aF28.56666666666667
aF31.5
asg24
(lp87
I5
aI3
aI5
aI4
aI5
asg26
(lp88
ssg28
(dp89
g6
(lp90
sg8
(lp91
g10
(g11
(S'S13'
I0
I1
tRp92
(I3
S'|'
NNNI13
I1
I0
tbS'="0021600323"'
tRp93
ag10
(g11
(S'S13'
I0
I1
tRp94
(I3
S'|'
NNNI13
I1
I0
tbS'="0021600404"'
tRp95
ag10
(g11
(S'S13'
I0
I1
tRp96
(I3
S'|'
NNNI13
I1
I0
tbS'="0021600520"'
tRp97
ag10
(g11
(S'S13'
I0
I1
tRp98
(I3
S'|'
NNNI13
I1
I0
tbS'="0021600658"'
tRp99
ag10
(g11
(S'S13'
I0
I1
tRp100
(I3
S'|'
NNNI13
I1
I0
tbS'="0021600762"'
tRp101
ag10
(g11
(S'S13'
I0
I1
tRp102
(I3
S'|'
NNNI13
I1
I0
tbS'="0021601034"'
tRp103
ag10
(g11
(S'S13'
I0
I1
tRp104
(I3
S'|'
NNNI13
I1
I0
tbS'="0021601214"'
tRp105
ag10
(g11
(S'S13'
I0
I1
tRp106
(I3
S'|'
NNNI13
I1
I0
tbS'="0021601225"'
tRp107
asg20
(lp108
F7.5166666666666675
aF8.4000000000000004
aF8.0333333333333332
aF7.6833333333333336
aF7.1833333333333336
aF8.1999999999999993
aF6.4500000000000002
aF9
asg22
(lp109
F21
aF20.216666666666669
aF20.016666666666666
aF21.316666666666666
aF15.399999999999999
aF20.883333333333333
aF19.600000000000001
aF31.933333333333334
asg24
(lp110
I3
aI5
aI2
aI3
aI3
aI5
aI2
aI4
asg26
(lp111
ssg56
(dp112
g6
(lp113
sg8
(lp114
g10
(g11
(S'S13'
I0
I1
tRp115
(I3
S'|'
NNNI13
I1
I0
tbS'="0021600042"'
tRp116
ag10
(g11
(S'S13'
I0
I1
tRp117
(I3
S'|'
NNNI13
I1
I0
tbS'="0021600470"'
tRp118
ag10
(g11
(S'S13'
I0
I1
tRp119
(I3
S'|'
NNNI13
I1
I0
tbS'="0021600776"'
tRp120
ag10
(g11
(S'S13'
I0
I1
tRp121
(I3
S'|'
NNNI13
I1
I0
tbS'="0021600842"'
tRp122
ag10
(g11
(S'S13'
I0
I1
tRp123
(I3
S'|'
NNNI13
I1
I0
tbS'="0021600864"'
tRp124
asg20
(lp125
F22.349999999999994
aF24.166666666666671
aF19.116666666666667
aF25.583333333333329
aF14.783333333333331
asg22
(lp126
F22.349999999999998
aF32.38333333333334
aF24.400000000000006
aF33.966666666666669
aF14.783333333333335
asg24
(lp127
I4
aI4
aI5
aI5
aI4
asg26
(lp128
sssS'Damian Lillard'
p129
(dp130
g4
(dp131
g6
(lp132
sg8
(lp133
g10
(g11
(S'S13'
I0
I1
tRp134
(I3
S'|'
NNNI13
I1
I0
tbS'="0021600002"'
tRp135
ag10
(g11
(S'S13'
I0
I1
tRp136
(I3
S'|'
NNNI13
I1
I0
tbS'="0021600850"'
tRp137
ag10
(g11
(S'S13'
I0
I1
tRp138
(I3
S'|'
NNNI13
I1
I0
tbS'="0021600983"'
tRp139
asg20
(lp140
F16.366666666666667
aF11.983333333333331
aF13.083333333333336
asg22
(lp141
F27.216666666666669
aF22.083333333333336
aF30.75
asg24
(lp142
I3
aI3
aI5
asg26
(lp143
ssg28
(dp144
g6
(lp145
sg8
(lp146
g10
(g11
(S'S13'
I0
I1
tRp147
(I3
S'|'
NNNI13
I1
I0
tbS'="0021600542"'
tRp148
ag10
(g11
(S'S13'
I0
I1
tRp149
(I3
S'|'
NNNI13
I1
I0
tbS'="0021600781"'
tRp150
asg20
(lp151
F8.5500000000000007
aF8.3000000000000007
asg22
(lp152
F27.916666666666668
aF27.066666666666666
asg24
(lp153
I3
aI5
asg26
(lp154
ssg56
(dp155
g6
(lp156
sg8
(lp157
sg20
(lp158
sg22
(lp159
sg24
(lp160
sg26
(lp161
sssS'Gordon Hayward'
p162
(dp163
g4
(dp164
g6
(lp165
sg8
(lp166
g10
(g11
(S'S13'
I0
I1
tRp167
(I3
S'|'
NNNI13
I1
I0
tbS'="0021600427"'
tRp168
asg20
(lp169
F17.550000000000001
asg22
(lp170
F26.949999999999996
asg24
(lp171
I3
asg26
(lp172
ssg28
(dp173
g6
(lp174
sg8
(lp175
g10
(g11
(S'S13'
I0
I1
tRp176
(I3
S'|'
NNNI13
I1
I0
tbS'="0021600556"'
tRp177
asg20
(lp178
F7.25
asg22
(lp179
F25.166666666666664
asg24
(lp180
I2
asg26
(lp181
ssg56
(dp182
g6
(lp183
sg8
(lp184
sg20
(lp185
sg22
(lp186
sg24
(lp187
sg26
(lp188
sssS'Isaiah Thomas'
p189
(dp190
g4
(dp191
g6
(lp192
sg8
(lp193
g10
(g11
(S'S13'
I0
I1
tRp194
(I3
S'|'
NNNI13
I1
I0
tbS'="0021600130"'
tRp195
ag10
(g11
(S'S13'
I0
I1
tRp196
(I3
S'|'
NNNI13
I1
I0
tbS'="0021600929"'
tRp197
asg20
(lp198
F11.349999999999998
aF15.416666666666668
asg22
(lp199
F23.349999999999998
aF32.266666666666666
asg24
(lp200
I4
aI4
asg26
(lp201
ssg28
(dp202
g6
(lp203
sg8
(lp204
g10
(g11
(S'S13'
I0
I1
tRp205
(I3
S'|'
NNNI13
I1
I0
tbS'="0021600283"'
tRp206
asg20
(lp207
F11.316666666666666
asg22
(lp208
F34.483333333333327
asg24
(lp209
I4
asg26
(lp210
ssg56
(dp211
g6
(lp212
sg8
(lp213
g10
(g11
(S'S13'
I0
I1
tRp214
(I3
S'|'
NNNI13
I1
I0
tbS'="0021600697"'
tRp215
ag10
(g11
(S'S13'
I0
I1
tRp216
(I3
S'|'
NNNI13
I1
I0
tbS'="0021600970"'
tRp217
asg20
(lp218
F24.699999999999996
aF27.550000000000004
asg22
(lp219
F24.699999999999996
aF33.933333333333337
asg24
(lp220
I4
aI5
asg26
(lp221
sssS'Kevin Durant'
p222
(dp223
g4
(dp224
g6
(lp225
sg8
(lp226
g10
(g11
(S'S13'
I0
I1
tRp227
(I3
S'|'
NNNI13
I1
I0
tbS'="0021600427"'
tRp228
asg20
(lp229
F17.966666666666661
asg22
(lp230
F24.733333333333327
asg24
(lp231
I4
asg26
(lp232
ssg28
(dp233
g6
(lp234
sg8
(lp235
g10
(g11
(S'S13'
I0
I1
tRp236
(I3
S'|'
NNNI13
I1
I0
tbS'="0021600351"'
tRp237
ag10
(g11
(S'S13'
I0
I1
tRp238
(I3
S'|'
NNNI13
I1
I0
tbS'="0041600224"'
tRp239
ag10
(g11
(S'S13'
I0
I1
tRp240
(I3
S'|'
NNNI13
I1
I0
tbS'="0041600405"'
tRp241
asg20
(lp242
F7.3166666666666664
aF5.2000000000000002
aF7.2166666666666668
asg22
(lp243
F30.916666666666664
aF30.033333333333335
aF28.250000000000007
asg24
(lp244
I2
aI4
aI3
asg26
(lp245
ssg56
(dp246
g6
(lp247
sg8
(lp248
g10
(g11
(S'S13'
I0
I1
tRp249
(I3
S'|'
NNNI13
I1
I0
tbS'="0021600813"'
tRp250
ag10
(g11
(S'S13'
I0
I1
tRp251
(I3
S'|'
NNNI13
I1
I0
tbS'="0041600311"'
tRp252
asg20
(lp253
F27.133333333333333
aF29.650000000000002
asg22
(lp254
F32.733333333333334
aF29.650000000000002
asg24
(lp255
I5
aI4
asg26
(lp256
sssS'Kyle Lowry'
p257
(dp258
g4
(dp259
g6
(lp260
sg8
(lp261
g10
(g11
(S'S13'
I0
I1
tRp262
(I3
S'|'
NNNI13
I1
I0
tbS'="0021600042"'
tRp263
ag10
(g11
(S'S13'
I0
I1
tRp264
(I3
S'|'
NNNI13
I1
I0
tbS'="0041600121"'
tRp265
asg20
(lp266
F14.733333333333334
aF14.383333333333336
asg22
(lp267
F23.616666666666667
aF33.866666666666667
asg24
(lp268
I4
aI4
asg26
(lp269
ssg28
(dp270
g6
(lp271
sg8
(lp272
g10
(g11
(S'S13'
I0
I1
tRp273
(I3
S'|'
NNNI13
I1
I0
tbS'="0021601180"'
tRp274
ag10
(g11
(S'S13'
I0
I1
tRp275
(I3
S'|'
NNNI13
I1
I0
tbS'="0041600125"'
tRp276
asg20
(lp277
F7.416666666666667
aF8.8833333333333329
asg22
(lp278
F23.933333333333334
aF36.416666666666671
asg24
(lp279
I4
aI4
asg26
(lp280
ssg56
(dp281
g6
(lp282
sg8
(lp283
sg20
(lp284
sg22
(lp285
sg24
(lp286
sg26
(lp287
sssS'Chris Paul'
p288
(dp289
g4
(dp290
g6
(lp291
sg8
(lp292
g10
(g11
(S'S13'
I0
I1
tRp293
(I3
S'|'
NNNI13
I1
I0
tbS'="0021600912"'
tRp294
asg20
(lp295
F14.633333333333335
asg22
(lp296
F29.383333333333333
asg24
(lp297
I5
asg26
(lp298
ssg28
(dp299
g6
(lp300
sg8
(lp301
g10
(g11
(S'S13'
I0
I1
tRp302
(I3
S'|'
NNNI13
I1
I0
tbS'="0021600355"'
tRp303
ag10
(g11
(S'S13'
I0
I1
tRp304
(I3
S'|'
NNNI13
I1
I0
tbS'="0021601031"'
tRp305
ag10
(g11
(S'S13'
I0
I1
tRp306
(I3
S'|'
NNNI13
I1
I0
tbS'="0041600172"'
tRp307
asg20
(lp308
F9.3499999999999996
aF8.6833333333333336
aF7.8166666666666664
asg22
(lp309
F29.833333333333329
aF27.199999999999999
aF23.5
asg24
(lp310
I3
aI2
aI4
asg26
(lp311
ssg56
(dp312
g6
(lp313
sg8
(lp314
g10
(g11
(S'S13'
I0
I1
tRp315
(I3
S'|'
NNNI13
I1
I0
tbS'="0021600183"'
tRp316
asg20
(lp317
F25.950000000000003
asg22
(lp318
F25.949999999999999
asg24
(lp319
I4
asg26
(lp320
sssS'Jimmy Butler'
p321
(dp322
g4
(dp323
g6
(lp324
sg8
(lp325
g10
(g11
(S'S13'
I0
I1
tRp326
(I3
S'|'
NNNI13
I1
I0
tbS'="0021600807"'
tRp327
asg20
(lp328
F15.500000000000004
asg22
(lp329
F30.333333333333336
aF30.333333333333336
asg24
(lp330
I3
aI3
asg26
(lp331
ssg28
(dp332
g6
(lp333
sg8
(lp334
g10
(g11
(S'S13'
I0
I1
tRp335
(I3
S'|'
NNNI13
I1
I0
tbS'="0021600296"'
tRp336
ag10
(g11
(S'S13'
I0
I1
tRp337
(I3
S'|'
NNNI13
I1
I0
tbS'="0021600393"'
tRp338
asg20
(lp339
F5.1333333333333329
aF8.4833333333333343
asg22
(lp340
F35.683333333333323
aF35.683333333333323
aF30.233333333333334
aF30.233333333333334
asg24
(lp341
I3
aI3
aI3
aI3
asg26
(lp342
ssg56
(dp343
g6
(lp344
sg8
(lp345
g10
(g11
(S'S13'
I0
I1
tRp346
(I3
S'|'
NNNI13
I1
I0
tbS'="0021600061"'
tRp347
asg20
(lp348
F28.049999999999997
asg22
(lp349
F28.049999999999997
aF28.049999999999997
asg24
(lp350
I5
aI5
asg26
(lp351
sssS'LeBron James'
p352
(dp353
g4
(dp354
g6
(lp355
sg8
(lp356
g10
(g11
(S'S13'
I0
I1
tRp357
(I3
S'|'
NNNI13
I1
I0
tbS'="0021600657"'
tRp358
asg20
(lp359
F19.600000000000001
asg22
(lp360
F40.333333333333336
asg24
(lp361
I3
asg26
(lp362
ssg28
(dp363
g6
(lp364
sg8
(lp365
sg20
(lp366
sg22
(lp367
sg24
(lp368
sg26
(lp369
ssg56
(dp370
g6
(lp371
sg8
(lp372
sg20
(lp373
sg22
(lp374
sg24
(lp375
sg26
(lp376
sssS'Stephen Curry'
p377
(dp378
g4
(dp379
g6
(lp380
sg8
(lp381
g10
(g11
(S'S13'
I0
I1
tRp382
(I3
S'|'
NNNI13
I1
I0
tbS'="0021600025"'
tRp383
ag10
(g11
(S'S13'
I0
I1
tRp384
(I3
S'|'
NNNI13
I1
I0
tbS'="0021600036"'
tRp385
ag10
(g11
(S'S13'
I0
I1
tRp386
(I3
S'|'
NNNI13
I1
I0
tbS'="0021600244"'
tRp387
ag10
(g11
(S'S13'
I0
I1
tRp388
(I3
S'|'
NNNI13
I1
I0
tbS'="0021601108"'
tRp389
asg20
(lp390
F14.033333333333335
aF16.949999999999999
aF17.933333333333334
aF17.700000000000003
asg22
(lp391
F26.033333333333331
aF21.849999999999998
aF30.050000000000001
aF29.083333333333336
asg24
(lp392
I3
aI5
aI4
aI5
asg26
(lp393
ssg28
(dp394
g6
(lp395
sg8
(lp396
g10
(g11
(S'S13'
I0
I1
tRp397
(I3
S'|'
NNNI13
I1
I0
tbS'="0021600078"'
tRp398
ag10
(g11
(S'S13'
I0
I1
tRp399
(I3
S'|'
NNNI13
I1
I0
tbS'="0021600281"'
tRp400
ag10
(g11
(S'S13'
I0
I1
tRp401
(I3
S'|'
NNNI13
I1
I0
tbS'="0021600405"'
tRp402
ag10
(g11
(S'S13'
I0
I1
tRp403
(I3
S'|'
NNNI13
I1
I0
tbS'="0021600889"'
tRp404
ag10
(g11
(S'S13'
I0
I1
tRp405
(I3
S'|'
NNNI13
I1
I0
tbS'="0041600141"'
tRp406
ag10
(g11
(S'S13'
I0
I1
tRp407
(I3
S'|'
NNNI13
I1
I0
tbS'="0041600313"'
tRp408
asg20
(lp409
F7.8666666666666663
aF9.1166666666666671
aF8.8333333333333339
aF7.666666666666667
aF11.183333333333334
aF7.833333333333333
asg22
(lp410
F31.099999999999998
aF31.816666666666674
aF8.8333333333333339
aF34.183333333333337
aF29.183333333333337
aF33.5
asg24
(lp411
I3
aI4
aI3
aI3
aI5
aI3
asg26
(lp412
ssg56
(dp413
g6
(lp414
sg8
(lp415
g10
(g11
(S'S13'
I0
I1
tRp416
(I3
S'|'
NNNI13
I1
I0
tbS'="0021600792"'
tRp417
ag10
(g11
(S'S13'
I0
I1
tRp418
(I3
S'|'
NNNI13
I1
I0
tbS'="0021600906"'
tRp419
asg20
(lp420
F25.616666666666664
aF26.916666666666664
asg22
(lp421
F28.199999999999999
aF26.916666666666664
asg24
(lp422
I4
aI4
asg26
(lp423
sssS'Rudy Gobert'
p424
(dp425
g4
(dp426
g6
(lp427
sg8
(lp428
g10
(g11
(S'S13'
I0
I1
tRp429
(I3
S'|'
NNNI13
I1
I0
tbS'="0021600062"'
tRp430
ag10
(g11
(S'S13'
I0
I1
tRp431
(I3
S'|'
NNNI13
I1
I0
tbS'="0021600093"'
tRp432
ag10
(g11
(S'S13'
I0
I1
tRp433
(I3
S'|'
NNNI13
I1
I0
tbS'="0021600136"'
tRp434
ag10
(g11
(S'S13'
I0
I1
tRp435
(I3
S'|'
NNNI13
I1
I0
tbS'="0021600197"'
tRp436
ag10
(g11
(S'S13'
I0
I1
tRp437
(I3
S'|'
NNNI13
I1
I0
tbS'="0021600556"'
tRp438
ag10
(g11
(S'S13'
I0
I1
tRp439
(I3
S'|'
NNNI13
I1
I0
tbS'="0021600576"'
tRp440
ag10
(g11
(S'S13'
I0
I1
tRp441
(I3
S'|'
NNNI13
I1
I0
tbS'="0021600903"'
tRp442
ag10
(g11
(S'S13'
I0
I1
tRp443
(I3
S'|'
NNNI13
I1
I0
tbS'="0021601185"'
tRp444
asg20
(lp445
F8.5999999999999979
aF14.083333333333334
aF15.250000000000004
aF9.7499999999999982
aF15.35
aF16.000000000000004
aF12.133333333333329
aF18.333333333333332
asg22
(lp446
F22.833333333333332
aF20.166666666666671
aF33.066666666666663
aF26.149999999999999
aF27.666666666666671
aF26.916666666666664
aF21.18333333333333
aF24.050000000000004
asg24
(lp447
I5
aI6
aI5
aI4
aI5
aI3
aI3
aI5
asg26
(lp448
ssg28
(dp449
g6
(lp450
sg8
(lp451
g10
(g11
(S'S13'
I0
I1
tRp452
(I3
S'|'
NNNI13
I1
I0
tbS'="0021600035"'
tRp453
asg20
(lp454
F5.8833333333333337
asg22
(lp455
F26.116666666666671
asg24
(lp456
I3
asg26
(lp457
ssg56
(dp458
g6
(lp459
sg8
(lp460
g10
(g11
(S'S13'
I0
I1
tRp461
(I3
S'|'
NNNI13
I1
I0
tbS'="0021600151"'
tRp462
ag10
(g11
(S'S13'
I0
I1
tRp463
(I3
S'|'
NNNI13
I1
I0
tbS'="0041600222"'
tRp464
asg20
(lp465
F20.116666666666667
aF24.866666666666667
asg22
(lp466
F21.883333333333333
aF24.866666666666664
asg24
(lp467
I5
aI6
asg26
(lp468
sssS'Kawhi Leonard'
p469
(dp470
g4
(dp471
g6
(lp472
sg8
(lp473
g10
(g11
(S'S13'
I0
I1
tRp474
(I3
S'|'
NNNI13
I1
I0
tbS'="0021600016"'
tRp475
ag10
(g11
(S'S13'
I0
I1
tRp476
(I3
S'|'
NNNI13
I1
I0
tbS'="0021600037"'
tRp477
asg20
(lp478
F12.866666666666665
aF13.200000000000003
asg22
(lp479
F22.916666666666664
aF23.016666666666666
asg24
(lp480
I5
aI3
asg26
(lp481
ssg28
(dp482
g6
(lp483
sg8
(lp484
g10
(g11
(S'S13'
I0
I1
tRp485
(I3
S'|'
NNNI13
I1
I0
tbS'="0041600153"'
tRp486
asg20
(lp487
F7.5499999999999998
asg22
(lp488
F30.200000000000003
asg24
(lp489
I2
asg26
(lp490
ssg56
(dp491
g6
(lp492
sg8
(lp493
g10
(g11
(S'S13'
I0
I1
tRp494
(I3
S'|'
NNNI13
I1
I0
tbS'="0021600625"'
tRp495
ag10
(g11
(S'S13'
I0
I1
tRp496
(I3
S'|'
NNNI13
I1
I0
tbS'="0021600902"'
tRp497
asg20
(lp498
F30.18333333333333
aF27.549999999999997
asg22
(lp499
F30.18333333333333
aF27.549999999999997
asg24
(lp500
I4
aI4
asg26
(lp501
sssS'Karl-Anthony Towns'
p502
(dp503
g4
(dp504
g6
(lp505
sg8
(lp506
g10
(g11
(S'S13'
I0
I1
tRp507
(I3
S'|'
NNNI13
I1
I0
tbS'="0021600190"'
tRp508
ag10
(g11
(S'S13'
I0
I1
tRp509
(I3
S'|'
NNNI13
I1
I0
tbS'="0021600416"'
tRp510
ag10
(g11
(S'S13'
I0
I1
tRp511
(I3
S'|'
NNNI13
I1
I0
tbS'="0021600468"'
tRp512
ag10
(g11
(S'S13'
I0
I1
tRp513
(I3
S'|'
NNNI13
I1
I0
tbS'="0021600748"'
tRp514
ag10
(g11
(S'S13'
I0
I1
tRp515
(I3
S'|'
NNNI13
I1
I0
tbS'="0021600955"'
tRp516
ag10
(g11
(S'S13'
I0
I1
tRp517
(I3
S'|'
NNNI13
I1
I0
tbS'="0021601178"'
tRp518
asg20
(lp519
F16.299999999999997
aF17.283333333333331
aF17.25
aF17.383333333333333
aF16.583333333333332
aF19.716666666666669
asg22
(lp520
F27.883333333333326
aF27.866666666666667
aF30.866666666666667
aF22.933333333333334
aF34.966666666666669
aF29.733333333333334
asg24
(lp521
I5
aI4
aI5
aI5
aI3
aI4
asg26
(lp522
ssg28
(dp523
g6
(lp524
sg8
(lp525
g10
(g11
(S'S13'
I0
I1
tRp526
(I3
S'|'
NNNI13
I1
I0
tbS'="0021600222"'
tRp527
ag10
(g11
(S'S13'
I0
I1
tRp528
(I3
S'|'
NNNI13
I1
I0
tbS'="0021600285"'
tRp529
ag10
(g11
(S'S13'
I0
I1
tRp530
(I3
S'|'
NNNI13
I1
I0
tbS'="0021600342"'
tRp531
ag10
(g11
(S'S13'
I0
I1
tRp532
(I3
S'|'
NNNI13
I1
I0
tbS'="0021600358"'
tRp533
ag10
(g11
(S'S13'
I0
I1
tRp534
(I3
S'|'
NNNI13
I1
I0
tbS'="0021600430"'
tRp535
ag10
(g11
(S'S13'
I0
I1
tRp536
(I3
S'|'
NNNI13
I1
I0
tbS'="0021600832"'
tRp537
ag10
(g11
(S'S13'
I0
I1
tRp538
(I3
S'|'
NNNI13
I1
I0
tbS'="0021601185"'
tRp539
asg20
(lp540
F8.2166666666666668
aF8.7333333333333343
aF8.9333333333333336
aF6.0166666666666666
aF8.4333333333333336
aF10.633333333333333
aF6.0999999999999996
asg22
(lp541
F29.266666666666666
aF24.38333333333334
aF31.599999999999998
aF28.716666666666669
aF28.883333333333336
aF28.383333333333333
aF19.666666666666664
asg24
(lp542
I3
aI4
aI3
aI3
aI3
aI4
aI4
asg26
(lp543
ssg56
(dp544
g6
(lp545
sg8
(lp546
g10
(g11
(S'S13'
I0
I1
tRp547
(I3
S'|'
NNNI13
I1
I0
tbS'="0021600034"'
tRp548
ag10
(g11
(S'S13'
I0
I1
tRp549
(I3
S'|'
NNNI13
I1
I0
tbS'="0021600101"'
tRp550
ag10
(g11
(S'S13'
I0
I1
tRp551
(I3
S'|'
NNNI13
I1
I0
tbS'="0021600135"'
tRp552
ag10
(g11
(S'S13'
I0
I1
tRp553
(I3
S'|'
NNNI13
I1
I0
tbS'="0021600258"'
tRp554
ag10
(g11
(S'S13'
I0
I1
tRp555
(I3
S'|'
NNNI13
I1
I0
tbS'="0021600804"'
tRp556
asg20
(lp557
F26.016666666666669
aF24.566666666666666
aF28.933333333333326
aF21.949999999999996
aF25.549999999999997
asg22
(lp558
F26.016666666666669
aF26.766666666666673
aF33.316666666666663
aF21.949999999999999
aF25.550000000000001
asg24
(lp559
I5
aI5
aI5
aI5
aI5
asg26
(lp560
sssS'Giannis Antetokounmpo'
p561
(dp562
g4
(dp563
g6
(lp564
sg8
(lp565
g10
(g11
(S'S13'
I0
I1
tRp566
(I3
S'|'
NNNI13
I1
I0
tbS'="0021600085"'
tRp567
ag10
(g11
(S'S13'
I0
I1
tRp568
(I3
S'|'
NNNI13
I1
I0
tbS'="0021600291"'
tRp569
ag10
(g11
(S'S13'
I0
I1
tRp570
(I3
S'|'
NNNI13
I1
I0
tbS'="0021600340"'
tRp571
ag10
(g11
(S'S13'
I0
I1
tRp572
(I3
S'|'
NNNI13
I1
I0
tbS'="0021600548"'
tRp573
ag10
(g11
(S'S13'
I0
I1
tRp574
(I3
S'|'
NNNI13
I1
I0
tbS'="0021600615"'
tRp575
ag10
(g11
(S'S13'
I0
I1
tRp576
(I3
S'|'
NNNI13
I1
I0
tbS'="0021600860"'
tRp577
ag10
(g11
(S'S13'
I0
I1
tRp578
(I3
S'|'
NNNI13
I1
I0
tbS'="0021600912"'
tRp579
asg20
(lp580
F15.950000000000003
aF17.266666666666666
aF10.566666666666663
aF16.766666666666669
aF18.633333333333333
aF14.216666666666667
aF12.716666666666669
asg22
(lp581
F25.06666666666667
aF25.750000000000004
aF20.36666666666666
aF26.166666666666668
aF28.866666666666664
aF26.216666666666669
aF31.449999999999996
asg24
(lp582
I3
aI4
aI5
aI4
aI6
aI4
aI4
asg26
(lp583
ssg28
(dp584
g6
(lp585
sg8
(lp586
g10
(g11
(S'S13'
I0
I1
tRp587
(I3
S'|'
NNNI13
I1
I0
tbS'="0021600232"'
tRp588
ag10
(g11
(S'S13'
I0
I1
tRp589
(I3
S'|'
NNNI13
I1
I0
tbS'="0021600497"'
tRp590
ag10
(g11
(S'S13'
I0
I1
tRp591
(I3
S'|'
NNNI13
I1
I0
tbS'="0021600698"'
tRp592
ag10
(g11
(S'S13'
I0
I1
tRp593
(I3
S'|'
NNNI13
I1
I0
tbS'="0021600993"'
tRp594
ag10
(g11
(S'S13'
I0
I1
tRp595
(I3
S'|'
NNNI13
I1
I0
tbS'="0021601013"'
tRp596
asg20
(lp597
F7.9666666666666668
aF9.4499999999999993
aF5.083333333333333
aF6.8666666666666663
aF7.4333333333333336
asg22
(lp598
F26
aF31.999999999999996
aF33.216666666666669
aF27.966666666666672
aF22.183333333333337
asg24
(lp599
I4
aI3
aI5
aI3
aI4
asg26
(lp600
ssg56
(dp601
g6
(lp602
sg8
(lp603
g10
(g11
(S'S13'
I0
I1
tRp604
(I3
S'|'
NNNI13
I1
I0
tbS'="0021600090"'
tRp605
ag10
(g11
(S'S13'
I0
I1
tRp606
(I3
S'|'
NNNI13
I1
I0
tbS'="0021600761"'
tRp607
ag10
(g11
(S'S13'
I0
I1
tRp608
(I3
S'|'
NNNI13
I1
I0
tbS'="0021600809"'
tRp609
ag10
(g11
(S'S13'
I0
I1
tRp610
(I3
S'|'
NNNI13
I1
I0
tbS'="0041600121"'
tRp611
asg20
(lp612
F16.983333333333334
aF25.000000000000004
aF25.966666666666661
aF28.100000000000001
asg22
(lp613
F21.183333333333337
aF33.866666666666674
aF25.966666666666661
aF38.333333333333336
asg24
(lp614
I4
aI4
aI5
aI4
asg26
(lp615
sssS'Russell Westbrook'
p616
(dp617
g4
(dp618
g6
(lp619
sg8
(lp620
sg20
(lp621
sg22
(lp622
sg24
(lp623
sg26
(lp624
ssg28
(dp625
g6
(lp626
sg8
(lp627
g10
(g11
(S'S13'
I0
I1
tRp628
(I3
S'|'
NNNI13
I1
I0
tbS'="0021600126"'
tRp629
ag10
(g11
(S'S13'
I0
I1
tRp630
(I3
S'|'
NNNI13
I1
I0
tbS'="0021600341"'
tRp631
ag10
(g11
(S'S13'
I0
I1
tRp632
(I3
S'|'
NNNI13
I1
I0
tbS'="0021600770"'
tRp633
asg20
(lp634
F7.9333333333333336
aF8.5333333333333332
aF9.2333333333333343
asg22
(lp635
F27.350000000000005
aF26.983333333333334
aF28.200000000000003
asg24
(lp636
I5
aI3
aI3
asg26
(lp637
ssg56
(dp638
g6
(lp639
sg8
(lp640
sg20
(lp641
sg22
(lp642
sg24
(lp643
sg26
(lp644
sssS'Mike Conley'
p645
(dp646
g4
(dp647
g6
(lp648
sg8
(lp649
sg20
(lp650
sg22
(lp651
sg24
(lp652
sg26
(lp653
ssg28
(dp654
g6
(lp655
sg8
(lp656
g10
(g11
(S'S13'
I0
I1
tRp657
(I3
S'|'
NNNI13
I1
I0
tbS'="0021600788"'
tRp658
asg20
(lp659
F6.333333333333333
asg22
(lp660
F30.849999999999998
asg24
(lp661
I3
asg26
(lp662
ssg56
(dp663
g6
(lp664
sg8
(lp665
sg20
(lp666
sg22
(lp667
sg24
(lp668
sg26
(lp669
sssS'DeAndre Jordan'
p670
(dp671
g4
(dp672
g6
(lp673
sg8
(lp674
g10
(g11
(S'S13'
I0
I1
tRp675
(I3
S'|'
NNNI13
I1
I0
tbS'="0021600017"'
tRp676
ag10
(g11
(S'S13'
I0
I1
tRp677
(I3
S'|'
NNNI13
I1
I0
tbS'="0021600496"'
tRp678
ag10
(g11
(S'S13'
I0
I1
tRp679
(I3
S'|'
NNNI13
I1
I0
tbS'="0021600519"'
tRp680
ag10
(g11
(S'S13'
I0
I1
tRp681
(I3
S'|'
NNNI13
I1
I0
tbS'="0021601210"'
tRp682
ag10
(g11
(S'S13'
I0
I1
tRp683
(I3
S'|'
NNNI13
I1
I0
tbS'="0041600175"'
tRp684
asg20
(lp685
F16.883333333333336
aF13.933333333333332
aF16.549999999999997
aF14.099999999999998
aF20.733333333333334
asg22
(lp686
F28.199999999999996
aF30.116666666666671
aF30.433333333333334
aF23.983333333333331
aF42.116666666666667
asg24
(lp687
I5
aI3
aI3
aI4
aI4
asg26
(lp688
ssg28
(dp689
g6
(lp690
sg8
(lp691
g10
(g11
(S'S13'
I0
I1
tRp692
(I3
S'|'
NNNI13
I1
I0
tbS'="0021600355"'
tRp693
ag10
(g11
(S'S13'
I0
I1
tRp694
(I3
S'|'
NNNI13
I1
I0
tbS'="0021600406"'
tRp695
ag10
(g11
(S'S13'
I0
I1
tRp696
(I3
S'|'
NNNI13
I1
I0
tbS'="0021600658"'
tRp697
ag10
(g11
(S'S13'
I0
I1
tRp698
(I3
S'|'
NNNI13
I1
I0
tbS'="0021600675"'
tRp699
ag10
(g11
(S'S13'
I0
I1
tRp700
(I3
S'|'
NNNI13
I1
I0
tbS'="0021600808"'
tRp701
ag10
(g11
(S'S13'
I0
I1
tRp702
(I3
S'|'
NNNI13
I1
I0
tbS'="0021600912"'
tRp703
ag10
(g11
(S'S13'
I0
I1
tRp704
(I3
S'|'
NNNI13
I1
I0
tbS'="0041600176"'
tRp705
asg20
(lp706
F8.7166666666666668
aF10.183333333333334
aF9.9333333333333336
aF8.1833333333333336
aF7.4500000000000002
aF9.4666666666666668
aF9.3833333333333329
asg22
(lp707
F23.116666666666667
aF28.350000000000001
aF27.199999999999999
aF28.666666666666668
aF28.183333333333337
aF32.116666666666667
aF36.849999999999994
asg24
(lp708
I4
aI2
aI5
aI3
aI3
aI4
aI5
asg26
(lp709
ssg56
(dp710
g6
(lp711
sg8
(lp712
g10
(g11
(S'S13'
I0
I1
tRp713
(I3
S'|'
NNNI13
I1
I0
tbS'="0021600045"'
tRp714
ag10
(g11
(S'S13'
I0
I1
tRp715
(I3
S'|'
NNNI13
I1
I0
tbS'="0021600183"'
tRp716
ag10
(g11
(S'S13'
I0
I1
tRp717
(I3
S'|'
NNNI13
I1
I0
tbS'="0021600739"'
tRp718
ag10
(g11
(S'S13'
I0
I1
tRp719
(I3
S'|'
NNNI13
I1
I0
tbS'="0021600791"'
tRp720
ag10
(g11
(S'S13'
I0
I1
tRp721
(I3
S'|'
NNNI13
I1
I0
tbS'="0021601082"'
tRp722
ag10
(g11
(S'S13'
I0
I1
tRp723
(I3
S'|'
NNNI13
I1
I0
tbS'="0041600172"'
tRp724
asg20
(lp725
F27.050000000000004
aF27.56666666666667
aF22.666666666666671
aF23.416666666666671
aF25.683333333333337
aF27.966666666666669
asg22
(lp726
F31.31666666666667
aF27.56666666666667
aF22.666666666666668
aF23.416666666666671
aF25.683333333333334
aF34.5
asg24
(lp727
I5
aI5
aI4
aI4
aI4
aI6
asg26
(lp728
sssS'James Harden'
p729
(dp730
g4
(dp731
g6
(lp732
sg8
(lp733
sg20
(lp734
sg22
(lp735
sg24
(lp736
sg26
(lp737
ssg28
(dp738
g6
(lp739
sg8
(lp740
g10
(g11
(S'S13'
I0
I1
tRp741
(I3
S'|'
NNNI13
I1
I0
tbS'="0041600235"'
tRp742
asg20
(lp743
F11.5
asg22
(lp744
F38.400000000000006
asg24
(lp745
I3
asg26
(lp746
ssg56
(dp747
g6
(lp748
sg8
(lp749
g10
(g11
(S'S13'
I0
I1
tRp750
(I3
S'|'
NNNI13
I1
I0
tbS'="0021600904"'
tRp751
asg20
(lp752
F25.033333333333339
asg22
(lp753
F35.566666666666663
asg24
(lp754
I4
asg26
(lp755
sssS'Anthony Davis'
p756
(dp757
g4
(dp758
g6
(lp759
sg8
(lp760
g10
(g11
(S'S13'
I0
I1
tRp761
(I3
S'|'
NNNI13
I1
I0
tbS'="0021600412"'
tRp762
ag10
(g11
(S'S13'
I0
I1
tRp763
(I3
S'|'
NNNI13
I1
I0
tbS'="0021600433"'
tRp764
asg20
(lp765
F18.533333333333335
aF16.049999999999997
asg22
(lp766
F29.683333333333334
aF25.966666666666665
asg24
(lp767
I4
aI5
asg26
(lp768
ssg28
(dp769
g6
(lp770
sg8
(lp771
g10
(g11
(S'S13'
I0
I1
tRp772
(I3
S'|'
NNNI13
I1
I0
tbS'="0021600481"'
tRp773
ag10
(g11
(S'S13'
I0
I1
tRp774
(I3
S'|'
NNNI13
I1
I0
tbS'="0021600539"'
tRp775
asg20
(lp776
F10.1
aF8.6666666666666661
asg22
(lp777
F30.300000000000001
aF24.866666666666667
asg24
(lp778
I4
aI5
asg26
(lp779
ssg56
(dp780
g6
(lp781
sg8
(lp782
g10
(g11
(S'S13'
I0
I1
tRp783
(I3
S'|'
NNNI13
I1
I0
tbS'="0021600060"'
tRp784
ag10
(g11
(S'S13'
I0
I1
tRp785
(I3
S'|'
NNNI13
I1
I0
tbS'="0021600359"'
tRp786
ag10
(g11
(S'S13'
I0
I1
tRp787
(I3
S'|'
NNNI13
I1
I0
tbS'="0021600645"'
tRp788
ag10
(g11
(S'S13'
I0
I1
tRp789
(I3
S'|'
NNNI13
I1
I0
tbS'="0021600880"'
tRp790
asg20
(lp791
F25.18333333333333
aF27.199999999999999
aF27.033333333333331
aF24.416666666666671
asg22
(lp792
F30.666666666666664
aF39.200000000000003
aF27.033333333333331
aF24.416666666666668
asg24
(lp793
I4
aI4
aI4
aI4
asg26
(lp794
sss.