(dp1
S'Hassan Whiteside'
p2
(dp3
<<<<<<< HEAD
S'Variance_sum'
p4
cnumpy.core.multiarray
scalar
p5
(cnumpy
dtype
p6
(S'f8'
I0
I1
tRp7
=======
S'3_3'
p4
(dp5
S'Time_50'
p6
(lp7
cnumpy.core.multiarray
scalar
p8
(cnumpy
dtype
p9
(S'f8'
I0
I1
tRp10
>>>>>>> 1b59cb2362bd8878d0b6ae118685f40a38747f0f
(I3
S'<'
NNNI-1
I-1
I0
<<<<<<< HEAD
tbS'W\x0c\x0f^\xc176@'
tRp8
sS'3_3'
p9
(dp10
S'Time_50'
p11
(lp12
g5
(g7
S'\x92\xe2Z\r\xfa\x9c\xfa?'
tRp13
ag5
(g7
S'\x8f\xc9\xa1\r\xed\x1b\x10@'
tRp14
ag5
(g7
S'\x8f\xc9\xa1\r\xed\x1b\x10@'
tRp15
ag5
(g7
S'\x04*\xa0\x02*\xa0\x1b@'
tRp16
asS'GameID'
p17
(lp18
g5
(g6
(S'S13'
I0
I1
tRp19
=======
tbS'\xf8\x03?\xf0\x03?%@'
tRp11
ag8
(g10
S'\xf4\x03?\xf0\x03\xbf,@'
tRp12
ag8
(g10
S'\xd2\xe1\x1c\xce\xe1\x9c @'
tRp13
ag8
(g10
S'\x04*\xa0\x02*\xa0\x1b@'
tRp14
asS'GameID'
p15
(lp16
g8
(g9
(S'S13'
I0
I1
tRp17
>>>>>>> 1b59cb2362bd8878d0b6ae118685f40a38747f0f
(I3
S'|'
NNNI13
I1
I0
tbS'="0021600049"'
<<<<<<< HEAD
tRp20
ag5
(g6
(S'S13'
I0
I1
tRp21
=======
tRp18
ag8
(g9
(S'S13'
I0
I1
tRp19
>>>>>>> 1b59cb2362bd8878d0b6ae118685f40a38747f0f
(I3
S'|'
NNNI13
I1
I0
tbS'="0021600473"'
<<<<<<< HEAD
tRp22
ag5
(g6
(S'S13'
I0
I1
tRp23
=======
tRp20
ag8
(g9
(S'S13'
I0
I1
tRp21
>>>>>>> 1b59cb2362bd8878d0b6ae118685f40a38747f0f
(I3
S'|'
NNNI13
I1
I0
tbS'="0021600799"'
<<<<<<< HEAD
tRp24
ag5
(g6
(S'S13'
I0
I1
tRp25
=======
tRp22
ag8
(g9
(S'S13'
I0
I1
tRp23
>>>>>>> 1b59cb2362bd8878d0b6ae118685f40a38747f0f
(I3
S'|'
NNNI13
I1
I0
tbS'="0021601165"'
<<<<<<< HEAD
tRp26
asS'MP_event'
p27
(lp28
=======
tRp24
asS'MP_event'
p25
(lp26
>>>>>>> 1b59cb2362bd8878d0b6ae118685f40a38747f0f
F11.783333333333331
aF15.083333333333336
aF13.549999999999997
aF13.550000000000001
asS'MP_game'
<<<<<<< HEAD
p29
(lp30
=======
p27
(lp28
>>>>>>> 1b59cb2362bd8878d0b6ae118685f40a38747f0f
F22.749999999999993
aF19
aF25.066666666666666
aF26.466666666666672
asS'Fouls_game'
<<<<<<< HEAD
p31
(lp32
=======
p29
(lp30
>>>>>>> 1b59cb2362bd8878d0b6ae118685f40a38747f0f
I5
aI4
aI4
aI3
asS'Time_90'
<<<<<<< HEAD
p33
(lp34
g5
(g7
S'-\x16\x08\xfa\x87!\xd0?'
tRp35
ag5
(g7
S'\xd7\x9a\xf6\xe1\x91s\xf4?'
tRp36
ag5
(g7
S'\xd7\x9a\xf6\xe1\x91s\xf4?'
tRp37
ag16
assS'Time_sum'
p38
g5
(g7
S'\xef\xf2w%\x03\x8eO@'
tRp39
sS'1_2'
p40
(dp41
g11
(lp42
g5
(g7
S'\xa0\xc39\x9c\xc39\x1e@'
tRp43
ag5
(g7
S'\x00\x00\x00\x00\x00\x00\x00\x00'
tRp44
ag5
(g7
S'X\x98\x84I\x98\x84\x0f@'
tRp45
ag5
(g7
S'\x92\xe2Z\r\xfa\x9c\xfa?'
tRp46
ag5
(g7
S'\x8f\xc9\xa1\r\xed\x1b\x10@'
tRp47
ag5
(g7
S'\xc8\xe5[\xbe\xe5[\x13@'
tRp48
ag5
(g7
S'\x10T@\x05T@\x05@'
tRp49
ag5
(g7
S'\xd0\xf6l\xcf\xf6l\x12@'
tRp50
ag5
(g7
S'\xe0tM\xd7tM\xff?'
tRp51
ag5
(g7
S'JY\x94EY\x94!@'
tRp52
asg17
(lp53
g5
(g6
(S'S13'
I0
I1
tRp54
=======
p31
(lp32
g8
(g10
S'Sk\x10\xa92\xb7\xfa?'
tRp33
ag8
(g10
S'Sk\x10\xa92\xb7\n@'
tRp34
ag8
(g10
S'Sk\x10\xa92\xb7\n@'
tRp35
ag8
(g10
S'\x81P\xcc\xfee\t\x14@'
tRp36
assS'1_2'
p37
(dp38
g6
(lp39
g8
(g10
S'\xa0\xc39\x9c\xc39\x1e@'
tRp40
ag8
(g10
S'\x00\x00\x00\x00\x00\x00\x00\x00'
tRp41
ag8
(g10
S'X\x98\x84I\x98\x84\x0f@'
tRp42
ag8
(g10
S'\xe0 \r\xd2 \r\x08@'
tRp43
ag8
(g10
S'Pn\xe4Fn\xe4\x1c@'
tRp44
ag8
(g10
S'\xc8\xe5[\xbe\xe5[\x13@'
tRp45
ag8
(g10
S'\x10T@\x05T@\x05@'
tRp46
ag8
(g10
S'\xd0\xf6l\xcf\xf6l\x12@'
tRp47
ag8
(g10
S'\xe0tM\xd7tM\xff?'
tRp48
ag8
(g10
S'JY\x94EY\x94!@'
tRp49
asg15
(lp50
g8
(g9
(S'S13'
I0
I1
tRp51
>>>>>>> 1b59cb2362bd8878d0b6ae118685f40a38747f0f
(I3
S'|'
NNNI13
I1
I0
tbS'="0021600004"'
<<<<<<< HEAD
tRp55
ag5
(g6
(S'S13'
I0
I1
tRp56
=======
tRp52
ag8
(g9
(S'S13'
I0
I1
tRp53
>>>>>>> 1b59cb2362bd8878d0b6ae118685f40a38747f0f
(I3
S'|'
NNNI13
I1
I0
tbS'="0021600037"'
<<<<<<< HEAD
tRp57
ag5
(g6
(S'S13'
I0
I1
tRp58
=======
tRp54
ag8
(g9
(S'S13'
I0
I1
tRp55
>>>>>>> 1b59cb2362bd8878d0b6ae118685f40a38747f0f
(I3
S'|'
NNNI13
I1
I0
tbS'="0021600170"'
<<<<<<< HEAD
tRp59
ag5
(g6
(S'S13'
I0
I1
tRp60
=======
tRp56
ag8
(g9
(S'S13'
I0
I1
tRp57
>>>>>>> 1b59cb2362bd8878d0b6ae118685f40a38747f0f
(I3
S'|'
NNNI13
I1
I0
tbS'="0021600199"'
<<<<<<< HEAD
tRp61
ag5
(g6
(S'S13'
I0
I1
tRp62
=======
tRp58
ag8
(g9
(S'S13'
I0
I1
tRp59
>>>>>>> 1b59cb2362bd8878d0b6ae118685f40a38747f0f
(I3
S'|'
NNNI13
I1
I0
tbS'="0021600243"'
<<<<<<< HEAD
tRp63
ag5
(g6
(S'S13'
I0
I1
tRp64
=======
tRp60
ag8
(g9
(S'S13'
I0
I1
tRp61
>>>>>>> 1b59cb2362bd8878d0b6ae118685f40a38747f0f
(I3
S'|'
NNNI13
I1
I0
tbS'="0021600377"'
<<<<<<< HEAD
tRp65
ag5
(g6
(S'S13'
I0
I1
tRp66
=======
tRp62
ag8
(g9
(S'S13'
I0
I1
tRp63
>>>>>>> 1b59cb2362bd8878d0b6ae118685f40a38747f0f
(I3
S'|'
NNNI13
I1
I0
tbS'="0021600397"'
<<<<<<< HEAD
tRp67
ag5
(g6
(S'S13'
I0
I1
tRp68
=======
tRp64
ag8
(g9
(S'S13'
I0
I1
tRp65
>>>>>>> 1b59cb2362bd8878d0b6ae118685f40a38747f0f
(I3
S'|'
NNNI13
I1
I0
tbS'="0021600637"'
<<<<<<< HEAD
tRp69
ag5
(g6
(S'S13'
I0
I1
tRp70
=======
tRp66
ag8
(g9
(S'S13'
I0
I1
tRp67
>>>>>>> 1b59cb2362bd8878d0b6ae118685f40a38747f0f
(I3
S'|'
NNNI13
I1
I0
tbS'="0021600841"'
<<<<<<< HEAD
tRp71
ag5
(g6
(S'S13'
I0
I1
tRp72
=======
tRp68
ag8
(g9
(S'S13'
I0
I1
tRp69
>>>>>>> 1b59cb2362bd8878d0b6ae118685f40a38747f0f
(I3
S'|'
NNNI13
I1
I0
tbS'="0021600863"'
<<<<<<< HEAD
tRp73
asg27
(lp74
=======
tRp70
asg25
(lp71
>>>>>>> 1b59cb2362bd8878d0b6ae118685f40a38747f0f
F9.4166666666666661
aF10.783333333333333
aF6.2833333333333332
aF11.216666666666667
aF7.8833333333333337
aF11.216666666666667
aF10.033333333333333
aF5.3166666666666682
aF6.5999999999999996
aF8.6166666666666671
<<<<<<< HEAD
asg29
(lp75
=======
asg27
(lp72
>>>>>>> 1b59cb2362bd8878d0b6ae118685f40a38747f0f
F25.81666666666667
aF34.949999999999996
aF29.433333333333334
aF30.366666666666667
aF26.149999999999999
aF28.533333333333331
aF30.716666666666669
aF28.766666666666673
aF31.416666666666671
aF24.583333333333332
<<<<<<< HEAD
asg31
(lp76
=======
asg29
(lp73
>>>>>>> 1b59cb2362bd8878d0b6ae118685f40a38747f0f
I3
aI2
aI3
aI5
aI4
aI3
aI4
aI2
aI4
aI2
<<<<<<< HEAD
asg33
(lp77
g43
ag44
ag45
ag5
(g7
S'-\x16\x08\xfa\x87!\xd0?'
tRp78
ag5
(g7
S'\xd7\x9a\xf6\xe1\x91s\xf4?'
tRp79
ag48
ag5
(g7
S'\xd7\x9a\xf6\xe1\x91s\xf4?'
tRp80
ag50
ag5
(g7
S'\xd7\x9a\xf6\xe1\x91s\xf4?'
tRp81
ag52
assS'5_4'
p82
(dp83
g11
(lp84
g5
(g7
S'\x92\xe2Z\r\xfa\x9c\xfa?'
tRp85
ag5
(g7
S'\x92\xe2Z\r\xfa\x9c\xfa?'
tRp86
ag5
(g7
S'\xd0\x0f\xfc\xc0\x0f\xfc\x08@'
tRp87
asg17
(lp88
g5
(g6
(S'S13'
I0
I1
tRp89
=======
asg31
(lp74
g8
(g10
S'\x81P\xcc\xfee\t\x14@'
tRp75
ag41
ag42
ag8
(g10
S'Sk\x10\xa92\xb7\xfa?'
tRp76
ag8
(g10
S'Sk\x10\xa92\xb7\n@'
tRp77
ag45
ag46
ag47
ag48
ag8
(g10
S'Sk\x10\xa92\xb7\x1a@'
tRp78
assS'5_4'
p79
(dp80
g6
(lp81
g8
(g10
S'\xc8\xe5[\xbe\xe5[\x19@'
tRp82
ag8
(g10
S'\xb0\xd4J\xad\xd4J\x1c@'
tRp83
ag8
(g10
S'\xd0\x0f\xfc\xc0\x0f\xfc\x08@'
tRp84
asg15
(lp85
g8
(g9
(S'S13'
I0
I1
tRp86
>>>>>>> 1b59cb2362bd8878d0b6ae118685f40a38747f0f
(I3
S'|'
NNNI13
I1
I0
tbS'="0021600350"'
<<<<<<< HEAD
tRp90
ag5
(g6
(S'S13'
I0
I1
tRp91
=======
tRp87
ag8
(g9
(S'S13'
I0
I1
tRp88
>>>>>>> 1b59cb2362bd8878d0b6ae118685f40a38747f0f
(I3
S'|'
NNNI13
I1
I0
tbS'="0021601041"'
<<<<<<< HEAD
tRp92
ag5
(g6
(S'S13'
I0
I1
tRp93
=======
tRp89
ag8
(g9
(S'S13'
I0
I1
tRp90
>>>>>>> 1b59cb2362bd8878d0b6ae118685f40a38747f0f
(I3
S'|'
NNNI13
I1
I0
tbS'="0021601068"'
<<<<<<< HEAD
tRp94
asg27
(lp95
F27.033333333333331
aF25.116666666666664
aF22.616666666666667
asg29
(lp96
F27.033333333333331
aF26.300000000000004
aF30.25
asg31
(lp97
I5
aI5
aI4
asg33
(lp98
g5
(g7
S'-\x16\x08\xfa\x87!\xd0?'
tRp99
ag5
(g7
S'-\x16\x08\xfa\x87!\xd0?'
tRp100
ag5
(g7
S'\xd7\x9a\xf6\xe1\x91s\xf4?'
tRp101
asssS'Nikola Jokic'
p102
(dp103
g4
g5
(g7
S'\xae\xe2m\xc8v\\7@'
tRp104
sg9
(dp105
g11
(lp106
g5
(g7
S'\x1b\xa40\x8fTf\x00@'
tRp107
ag5
(g7
S'\xbf`\xdd\x13\xa1\xa2*@'
tRp108
ag5
(g7
S'\x1b\xa40\x8fTf\x00@'
tRp109
ag5
(g7
S'\x80\x98\xfb\x87\xb9\x7f\x00@'
tRp110
ag5
(g7
S'\x00\x00\x00\x00\x00\x00\x00\x00'
tRp111
asg17
(lp112
g5
(g6
(S'S13'
I0
I1
tRp113
=======
tRp91
asg25
(lp92
F27.033333333333331
aF25.116666666666664
aF22.616666666666667
asg27
(lp93
F27.033333333333331
aF26.300000000000004
aF30.25
asg29
(lp94
I5
aI5
aI4
asg31
(lp95
g8
(g10
S'Sk\x10\xa92\xb7\xfa?'
tRp96
ag8
(g10
S'Sk\x10\xa92\xb7\xfa?'
tRp97
ag84
asssS'Nikola Jokic'
p98
(dp99
g4
(dp100
g6
(lp101
g8
(g10
S'\x8d:\xaa\xa8}\x83%@'
tRp102
ag8
(g10
S'#\x84\x10B\x08!0@'
tRp103
ag8
(g10
S'\x8aLe\xc8T\x06!@'
tRp104
ag8
(g10
S'\x80\x98\xfb\x87\xb9\x7f\x00@'
tRp105
ag8
(g10
S'\x00\x00\x00\x00\x00\x00\x00\x00'
tRp106
asg15
(lp107
g8
(g9
(S'S13'
I0
I1
tRp108
>>>>>>> 1b59cb2362bd8878d0b6ae118685f40a38747f0f
(I3
S'|'
NNNI13
I1
I0
tbS'="0021600386"'
<<<<<<< HEAD
tRp114
ag5
(g6
(S'S13'
I0
I1
tRp115
=======
tRp109
ag8
(g9
(S'S13'
I0
I1
tRp110
>>>>>>> 1b59cb2362bd8878d0b6ae118685f40a38747f0f
(I3
S'|'
NNNI13
I1
I0
tbS'="0021600426"'
<<<<<<< HEAD
tRp116
ag5
(g6
(S'S13'
I0
I1
tRp117
=======
tRp111
ag8
(g9
(S'S13'
I0
I1
tRp112
>>>>>>> 1b59cb2362bd8878d0b6ae118685f40a38747f0f
(I3
S'|'
NNNI13
I1
I0
tbS'="0021600500"'
<<<<<<< HEAD
tRp118
ag5
(g6
(S'S13'
I0
I1
tRp119
=======
tRp113
ag8
(g9
(S'S13'
I0
I1
tRp114
>>>>>>> 1b59cb2362bd8878d0b6ae118685f40a38747f0f
(I3
S'|'
NNNI13
I1
I0
tbS'="0021600785"'
<<<<<<< HEAD
tRp120
ag5
(g6
(S'S13'
I0
I1
tRp121
=======
tRp115
ag8
(g9
(S'S13'
I0
I1
tRp116
>>>>>>> 1b59cb2362bd8878d0b6ae118685f40a38747f0f
(I3
S'|'
NNNI13
I1
I0
tbS'="0021601198"'
<<<<<<< HEAD
tRp122
asg27
(lp123
=======
tRp117
asg25
(lp118
>>>>>>> 1b59cb2362bd8878d0b6ae118685f40a38747f0f
F14.566666666666663
aF8.4833333333333307
aF11.700000000000001
aF13.716666666666667
aF16.383333333333329
<<<<<<< HEAD
asg29
(lp124
=======
asg27
(lp119
>>>>>>> 1b59cb2362bd8878d0b6ae118685f40a38747f0f
F19.383333333333333
aF14.499999999999996
aF22.116666666666664
aF28.56666666666667
aF31.5
<<<<<<< HEAD
asg31
(lp125
=======
asg29
(lp120
>>>>>>> 1b59cb2362bd8878d0b6ae118685f40a38747f0f
I5
aI3
aI5
aI4
aI5
<<<<<<< HEAD
asg33
(lp126
g5
(g7
S'Y=\xf9\xc8\xae\x03\xd4?'
tRp127
ag5
(g7
S'\xbf`\xdd\x13\xa1\xa2*@'
tRp128
ag5
(g7
S'Y=\xf9\xc8\xae\x03\xd4?'
tRp129
ag5
(g7
S'\xfeG")\x8b/\xf9?'
tRp130
ag111
assg38
g5
(g7
S'sZX\xa0\xfc\\V@'
tRp131
sg40
(dp132
g11
(lp133
g5
(g7
S'D\x08!\x84\x10B#@'
tRp134
ag5
(g7
S'\x1b\xa40\x8fTf\x00@'
tRp135
ag5
(g7
S'\xbc\x7f\x98\xfb\x879%@'
tRp136
ag5
(g7
S'"\xe6\xfea\xee\x9f"@'
tRp137
ag5
(g7
S'\xbf`\xdd\x13\xa1\xa2*@'
tRp138
ag5
(g7
S'\x1b\xa40\x8fTf\x00@'
tRp139
ag5
(g7
S'\x10\xd5\xedP\xdd\x0e&@'
tRp140
ag5
(g7
S'\x00\x00\x00\x00\x00\x00\x00\x00'
tRp141
asg17
(lp142
g5
(g6
(S'S13'
I0
I1
tRp143
=======
asg31
(lp121
g8
(g10
S'G\xe6\xe2\xc3>)\xfa?'
tRp122
ag8
(g10
S'\xb6,\xea\x12\xef\x9e\x13@'
tRp123
ag8
(g10
S'G\xe6\xe2\xc3>)\xfa?'
tRp124
ag105
ag106
assg37
(dp125
g6
(lp126
g8
(g10
S'D\x08!\x84\x10B#@'
tRp127
ag8
(g10
S'T\x192\x95!\xd3$@'
tRp128
ag8
(g10
S'\xbc\x7f\x98\xfb\x879%@'
tRp129
ag8
(g10
S'"\xe6\xfea\xee\x9f"@'
tRp130
ag8
(g10
S'x;T\xb7Cu.@'
tRp131
ag8
(g10
S'\x00\xc4\xdc?\xcc}#@'
tRp132
ag8
(g10
S'\x10\xd5\xedP\xdd\x0e&@'
tRp133
ag8
(g10
S'\x00\x00\x00\x00\x00\x00\x00\x00'
tRp134
asg15
(lp135
g8
(g9
(S'S13'
I0
I1
tRp136
>>>>>>> 1b59cb2362bd8878d0b6ae118685f40a38747f0f
(I3
S'|'
NNNI13
I1
I0
tbS'="0021600323"'
<<<<<<< HEAD
tRp144
ag5
(g6
(S'S13'
I0
I1
tRp145
=======
tRp137
ag8
(g9
(S'S13'
I0
I1
tRp138
>>>>>>> 1b59cb2362bd8878d0b6ae118685f40a38747f0f
(I3
S'|'
NNNI13
I1
I0
tbS'="0021600404"'
<<<<<<< HEAD
tRp146
ag5
(g6
(S'S13'
I0
I1
tRp147
=======
tRp139
ag8
(g9
(S'S13'
I0
I1
tRp140
>>>>>>> 1b59cb2362bd8878d0b6ae118685f40a38747f0f
(I3
S'|'
NNNI13
I1
I0
tbS'="0021600520"'
<<<<<<< HEAD
tRp148
ag5
(g6
(S'S13'
I0
I1
tRp149
=======
tRp141
ag8
(g9
(S'S13'
I0
I1
tRp142
>>>>>>> 1b59cb2362bd8878d0b6ae118685f40a38747f0f
(I3
S'|'
NNNI13
I1
I0
tbS'="0021600658"'
<<<<<<< HEAD
tRp150
ag5
(g6
(S'S13'
I0
I1
tRp151
=======
tRp143
ag8
(g9
(S'S13'
I0
I1
tRp144
>>>>>>> 1b59cb2362bd8878d0b6ae118685f40a38747f0f
(I3
S'|'
NNNI13
I1
I0
tbS'="0021600762"'
<<<<<<< HEAD
tRp152
ag5
(g6
(S'S13'
I0
I1
tRp153
=======
tRp145
ag8
(g9
(S'S13'
I0
I1
tRp146
>>>>>>> 1b59cb2362bd8878d0b6ae118685f40a38747f0f
(I3
S'|'
NNNI13
I1
I0
tbS'="0021601034"'
<<<<<<< HEAD
tRp154
ag5
(g6
(S'S13'
I0
I1
tRp155
=======
tRp147
ag8
(g9
(S'S13'
I0
I1
tRp148
>>>>>>> 1b59cb2362bd8878d0b6ae118685f40a38747f0f
(I3
S'|'
NNNI13
I1
I0
tbS'="0021601214"'
<<<<<<< HEAD
tRp156
ag5
(g6
(S'S13'
I0
I1
tRp157
=======
tRp149
ag8
(g9
(S'S13'
I0
I1
tRp150
>>>>>>> 1b59cb2362bd8878d0b6ae118685f40a38747f0f
(I3
S'|'
NNNI13
I1
I0
tbS'="0021601225"'
<<<<<<< HEAD
tRp158
asg27
(lp159
=======
tRp151
asg25
(lp152
>>>>>>> 1b59cb2362bd8878d0b6ae118685f40a38747f0f
F7.5166666666666675
aF8.4000000000000004
aF8.0333333333333332
aF7.6833333333333336
aF7.1833333333333336
aF8.1999999999999993
aF6.4500000000000002
aF9
<<<<<<< HEAD
asg29
(lp160
=======
asg27
(lp153
>>>>>>> 1b59cb2362bd8878d0b6ae118685f40a38747f0f
F21
aF20.216666666666669
aF20.016666666666666
aF21.316666666666666
aF15.399999999999999
aF20.883333333333333
aF19.600000000000001
aF31.933333333333334
<<<<<<< HEAD
asg31
(lp161
=======
asg29
(lp154
>>>>>>> 1b59cb2362bd8878d0b6ae118685f40a38747f0f
I3
aI5
aI2
aI3
aI3
aI5
aI2
aI4
<<<<<<< HEAD
asg33
(lp162
g134
ag5
(g7
S'Y=\xf9\xc8\xae\x03\xd4?'
tRp163
ag136
ag137
ag5
(g7
S'\xbf`\xdd\x13\xa1\xa2*@'
tRp164
ag5
(g7
S'Y=\xf9\xc8\xae\x03\xd4?'
tRp165
ag140
ag141
assg82
(dp166
g11
(lp167
g5
(g7
S'\x9a\x1bf\x93f\xd8\x13@'
tRp168
ag5
(g7
S'\x00\x00\x00\x00\x00\x00\x00\x00'
tRp169
ag5
(g7
S'\x1b\xa40\x8fTf\x00@'
tRp170
ag5
(g7
S'\x00\x00\x00\x00\x00\x00\x00\x00'
tRp171
ag5
(g7
S'\x9a\x1bf\x93f\xd8\x13@'
tRp172
asg17
(lp173
g5
(g6
(S'S13'
I0
I1
tRp174
=======
asg31
(lp155
g8
(g10
S'\xb6,\xea\x12\xef\x9e\x13@'
tRp156
ag8
(g10
S'G\xe6\xe2\xc3>)\xfa?'
tRp157
ag8
(g10
S'G\xe6\xe2\xc3>)\x1a@'
tRp158
ag8
(g10
S'\xb6,\xea\x12\xef\x9e\x13@'
tRp159
ag8
(g10
S'\xb6,\xea\x12\xef\x9e\x13@'
tRp160
ag8
(g10
S'G\xe6\xe2\xc3>)\xfa?'
tRp161
ag8
(g10
S'G\xe6\xe2\xc3>)\x1a@'
tRp162
ag134
assg79
(dp163
g6
(lp164
g8
(g10
S'\x12\xd5\xedP\xdd\x8e @'
tRp165
ag8
(g10
S'\x00\x00\x00\x00\x00\x00\x00\x00'
tRp166
ag8
(g10
S'\xe8v\xa8n\x87\xea\x18@'
tRp167
ag8
(g10
S'\x00\x00\x00\x00\x00\x00\x00\x00'
tRp168
ag8
(g10
S'2\xf7\x0fs\xff\xb0/@'
tRp169
asg15
(lp170
g8
(g9
(S'S13'
I0
I1
tRp171
>>>>>>> 1b59cb2362bd8878d0b6ae118685f40a38747f0f
(I3
S'|'
NNNI13
I1
I0
tbS'="0021600042"'
<<<<<<< HEAD
tRp175
ag5
(g6
(S'S13'
I0
I1
tRp176
=======
tRp172
ag8
(g9
(S'S13'
I0
I1
tRp173
>>>>>>> 1b59cb2362bd8878d0b6ae118685f40a38747f0f
(I3
S'|'
NNNI13
I1
I0
tbS'="0021600470"'
<<<<<<< HEAD
tRp177
ag5
(g6
(S'S13'
I0
I1
tRp178
=======
tRp174
ag8
(g9
(S'S13'
I0
I1
tRp175
>>>>>>> 1b59cb2362bd8878d0b6ae118685f40a38747f0f
(I3
S'|'
NNNI13
I1
I0
tbS'="0021600776"'
<<<<<<< HEAD
tRp179
ag5
(g6
(S'S13'
I0
I1
tRp180
=======
tRp176
ag8
(g9
(S'S13'
I0
I1
tRp177
>>>>>>> 1b59cb2362bd8878d0b6ae118685f40a38747f0f
(I3
S'|'
NNNI13
I1
I0
tbS'="0021600842"'
<<<<<<< HEAD
tRp181
ag5
(g6
(S'S13'
I0
I1
tRp182
=======
tRp178
ag8
(g9
(S'S13'
I0
I1
tRp179
>>>>>>> 1b59cb2362bd8878d0b6ae118685f40a38747f0f
(I3
S'|'
NNNI13
I1
I0
tbS'="0021600864"'
<<<<<<< HEAD
tRp183
asg27
(lp184
=======
tRp180
asg25
(lp181
>>>>>>> 1b59cb2362bd8878d0b6ae118685f40a38747f0f
F22.349999999999994
aF24.166666666666671
aF19.116666666666667
aF25.583333333333329
aF14.783333333333331
<<<<<<< HEAD
asg29
(lp185
=======
asg27
(lp182
>>>>>>> 1b59cb2362bd8878d0b6ae118685f40a38747f0f
F22.349999999999998
aF32.38333333333334
aF24.400000000000006
aF33.966666666666669
aF14.783333333333335
<<<<<<< HEAD
asg31
(lp186
=======
asg29
(lp183
>>>>>>> 1b59cb2362bd8878d0b6ae118685f40a38747f0f
I4
aI4
aI5
aI5
aI4
<<<<<<< HEAD
asg33
(lp187
g5
(g7
S'\xfeG")\x8b/\xf9?'
tRp188
ag169
ag5
(g7
S'Y=\xf9\xc8\xae\x03\xd4?'
tRp189
ag171
ag5
(g7
S'\xfeG")\x8b/\xf9?'
tRp190
asssS'James Harden'
p191
(dp192
g4
g5
(g7
S'\x00\x00\x00\x00\x00\x00\x00\x00'
tRp193
sg9
(dp194
g11
(lp195
sg17
(lp196
sg27
(lp197
sg29
(lp198
sg31
(lp199
sg33
(lp200
ssg38
g5
(g7
S'@\x89\xefU\xbc"\xf1?'
tRp201
sg40
(dp202
g11
(lp203
g5
(g7
S'\x00\x00\x00\x00\x00\x00\x00\x00'
tRp204
asg17
(lp205
g5
(g6
(S'S13'
I0
I1
tRp206
=======
asg31
(lp184
g8
(g10
S'G\xe6\xe2\xc3>)\n@'
tRp185
ag166
ag8
(g10
S'G\xe6\xe2\xc3>)\xfa?'
tRp186
ag168
ag8
(g10
S'G\xe6\xe2\xc3>)\n@'
tRp187
asssS'James Harden'
p188
(dp189
g4
(dp190
g6
(lp191
sg15
(lp192
sg25
(lp193
sg27
(lp194
sg29
(lp195
sg31
(lp196
ssg37
(dp197
g6
(lp198
g8
(g10
S'\x00\x00\x00\x00\x00\x00\x00\x00'
tRp199
asg15
(lp200
g8
(g9
(S'S13'
I0
I1
tRp201
>>>>>>> 1b59cb2362bd8878d0b6ae118685f40a38747f0f
(I3
S'|'
NNNI13
I1
I0
tbS'="0041600235"'
<<<<<<< HEAD
tRp207
asg27
(lp208
F11.5
asg29
(lp209
F38.400000000000006
asg31
(lp210
I3
asg33
(lp211
g204
assg82
(dp212
g11
(lp213
g5
(g7
S'@\x89\xefU\xbc"\xf1?'
tRp214
asg17
(lp215
g5
(g6
(S'S13'
I0
I1
tRp216
=======
tRp202
asg25
(lp203
F11.5
asg27
(lp204
F38.400000000000006
asg29
(lp205
I3
asg31
(lp206
g199
assg79
(dp207
g6
(lp208
g8
(g10
S'@\x89\xefU\xbc"\xf1?'
tRp209
asg15
(lp210
g8
(g9
(S'S13'
I0
I1
tRp211
>>>>>>> 1b59cb2362bd8878d0b6ae118685f40a38747f0f
(I3
S'|'
NNNI13
I1
I0
tbS'="0021600904"'
<<<<<<< HEAD
tRp217
asg27
(lp218
F25.033333333333339
asg29
(lp219
F35.566666666666663
asg31
(lp220
I4
asg33
(lp221
g214
asssS'Damian Lillard'
p222
(dp223
g4
g5
(g7
S'\xf8|$&\xbct\x12@'
tRp224
sg9
(dp225
g11
(lp226
g5
(g7
S'\xb6\x86\x1cq\xa6\xe0\x1f@'
tRp227
ag5
(g7
S'\xb6\x86\x1cq\xa6\xe0\x1f@'
tRp228
ag5
(g7
S'\xc8\x99\xf9\xb2\x8eY\x02@'
tRp229
asg17
(lp230
g5
(g6
(S'S13'
I0
I1
tRp231
=======
tRp212
asg25
(lp213
F25.033333333333339
asg27
(lp214
F35.566666666666663
asg29
(lp215
I4
asg31
(lp216
g209
asssS'Damian Lillard'
p217
(dp218
g4
(dp219
g6
(lp220
g8
(g10
S'\xcc\xf3<\xcf\xf3\x1c!@'
tRp221
ag8
(g10
S'\x108\x81\x138a+@'
tRp222
ag8
(g10
S'x\xc5W|\xc5\x17\x14@'
tRp223
asg15
(lp224
g8
(g9
(S'S13'
I0
I1
tRp225
>>>>>>> 1b59cb2362bd8878d0b6ae118685f40a38747f0f
(I3
S'|'
NNNI13
I1
I0
tbS'="0021600002"'
<<<<<<< HEAD
tRp232
ag5
(g6
(S'S13'
I0
I1
tRp233
=======
tRp226
ag8
(g9
(S'S13'
I0
I1
tRp227
>>>>>>> 1b59cb2362bd8878d0b6ae118685f40a38747f0f
(I3
S'|'
NNNI13
I1
I0
tbS'="0021600850"'
<<<<<<< HEAD
tRp234
ag5
(g6
(S'S13'
I0
I1
tRp235
=======
tRp228
ag8
(g9
(S'S13'
I0
I1
tRp229
>>>>>>> 1b59cb2362bd8878d0b6ae118685f40a38747f0f
(I3
S'|'
NNNI13
I1
I0
tbS'="0021600983"'
<<<<<<< HEAD
tRp236
asg27
(lp237
F16.366666666666667
aF11.983333333333331
aF13.083333333333336
asg29
(lp238
F27.216666666666669
aF22.083333333333336
aF30.75
asg31
(lp239
I3
aI3
aI5
asg33
(lp240
g5
(g7
S'\xb6\x86\x1cq\xa6\xe0\x1f@'
tRp241
ag5
(g7
S'\xb6\x86\x1cq\xa6\xe0\x1f@'
tRp242
ag5
(g7
S'\x9eS\x90Q7_\xd6?'
tRp243
assg38
g5
(g7
S'\x81\xf0\xb7\x99\xfda<@'
tRp244
sg40
(dp245
g11
(lp246
g5
(g7
S'\xcc\x1a\xad\xd1\x1am\x1f@'
tRp247
ag5
(g7
S'\xc8\x99\xf9\xb2\x8eY\x02@'
tRp248
asg17
(lp249
g5
(g6
(S'S13'
I0
I1
tRp250
=======
tRp230
asg25
(lp231
F16.366666666666667
aF11.983333333333331
aF13.083333333333336
asg27
(lp232
F27.216666666666669
aF22.083333333333336
aF30.75
asg29
(lp233
I3
aI3
aI5
asg31
(lp234
g8
(g10
S'\xd5\xffc\xe1d\x06!@'
tRp235
ag8
(g10
S'\xd5\xffc\xe1d\x06!@'
tRp236
ag8
(g10
S'\x1aU\x85,1\xb3\x06@'
tRp237
assg37
(dp238
g6
(lp239
g8
(g10
S'\xcc\x1a\xad\xd1\x1am\x1f@'
tRp240
ag8
(g10
S'\x9a\xc0\t\x9c\xc0i!@'
tRp241
asg15
(lp242
g8
(g9
(S'S13'
I0
I1
tRp243
>>>>>>> 1b59cb2362bd8878d0b6ae118685f40a38747f0f
(I3
S'|'
NNNI13
I1
I0
tbS'="0021600542"'
<<<<<<< HEAD
tRp251
ag5
(g6
(S'S13'
I0
I1
tRp252
=======
tRp244
ag8
(g9
(S'S13'
I0
I1
tRp245
>>>>>>> 1b59cb2362bd8878d0b6ae118685f40a38747f0f
(I3
S'|'
NNNI13
I1
I0
tbS'="0021600781"'
<<<<<<< HEAD
tRp253
asg27
(lp254
F8.5500000000000007
aF8.3000000000000007
asg29
(lp255
F27.916666666666668
aF27.066666666666666
asg31
(lp256
I3
aI5
asg33
(lp257
g247
ag5
(g7
S'\x9eS\x90Q7_\xd6?'
tRp258
assg82
(dp259
g11
(lp260
sg17
(lp261
sg27
(lp262
sg29
(lp263
sg31
(lp264
sg33
(lp265
sssS'Gordon Hayward'
p266
(dp267
g4
g5
(g7
S'\x00\x00\x00\x00\x00\x00\x00\x00'
tRp268
sg9
(dp269
g11
(lp270
g5
(g7
S'\x8f\xf3\t!\x95g\x17@'
tRp271
asg17
(lp272
g5
(g6
(S'S13'
I0
I1
tRp273
=======
tRp246
asg25
(lp247
F8.5500000000000007
aF8.3000000000000007
asg27
(lp248
F27.916666666666668
aF27.066666666666666
asg29
(lp249
I3
aI5
asg31
(lp250
g240
ag8
(g10
S'\x1aU\x85,1\xb3\x06@'
tRp251
assg79
(dp252
g6
(lp253
sg15
(lp254
sg25
(lp255
sg27
(lp256
sg29
(lp257
sg31
(lp258
sssS'Gordon Hayward'
p259
(dp260
g4
(dp261
g6
(lp262
g8
(g10
S'\xc4M1j\xf8{ @'
tRp263
asg15
(lp264
g8
(g9
(S'S13'
I0
I1
tRp265
>>>>>>> 1b59cb2362bd8878d0b6ae118685f40a38747f0f
(I3
S'|'
NNNI13
I1
I0
tbS'="0021600427"'
<<<<<<< HEAD
tRp274
asg27
(lp275
F17.550000000000001
asg29
(lp276
F26.949999999999996
asg31
(lp277
I3
asg33
(lp278
g5
(g7
S'\x8f\xf3\t!\x95g\x17@'
tRp279
assg38
g5
(g7
S"\x8f\xf3\t!\x95g'@"
tRp280
sg40
(dp281
g11
(lp282
g5
(g7
S'\x8f\xf3\t!\x95g\x17@'
tRp283
asg17
(lp284
g5
(g6
(S'S13'
I0
I1
tRp285
=======
tRp266
asg25
(lp267
F17.550000000000001
asg27
(lp268
F26.949999999999996
asg29
(lp269
I3
asg31
(lp270
g263
assg37
(dp271
g6
(lp272
g8
(g10
S'\xd4^B{\t\r$@'
tRp273
asg15
(lp274
g8
(g9
(S'S13'
I0
I1
tRp275
>>>>>>> 1b59cb2362bd8878d0b6ae118685f40a38747f0f
(I3
S'|'
NNNI13
I1
I0
tbS'="0021600556"'
<<<<<<< HEAD
tRp286
asg27
(lp287
F7.25
asg29
(lp288
F25.166666666666664
asg31
(lp289
I2
asg33
(lp290
g5
(g7
S'\x8f\xf3\t!\x95g\x17@'
tRp291
assg82
(dp292
g11
(lp293
sg17
(lp294
sg27
(lp295
sg29
(lp296
sg31
(lp297
sg33
(lp298
sssS'Karl-Anthony Towns'
p299
(dp300
g4
g5
(g7
S'Q\xb0~\xea\x93\xcd8@'
tRp301
sg9
(dp302
g11
(lp303
g5
(g7
S"E\x16\x0c]\xa6'\xf7?"
tRp304
ag5
(g7
S'Pc\x03\xfa\xe0\x06\x0c@'
tRp305
ag5
(g7
S"E\x16\x0c]\xa6'\xf7?"
tRp306
ag5
(g7
S"E\x16\x0c]\xa6'\xf7?"
tRp307
ag5
(g7
S'\x80\xc2\xf5(\\\x8f\x04@'
tRp308
ag5
(g7
S'Pc\x03\xfa\xe0\x06\x0c@'
tRp309
asg17
(lp310
g5
(g6
(S'S13'
I0
I1
tRp311
=======
tRp276
asg25
(lp277
F7.25
asg27
(lp278
F25.166666666666664
asg29
(lp279
I2
asg31
(lp280
g273
assg79
(dp281
g6
(lp282
sg15
(lp283
sg25
(lp284
sg27
(lp285
sg29
(lp286
sg31
(lp287
sssS'Karl-Anthony Towns'
p288
(dp289
g4
(dp290
g6
(lp291
g8
(g10
S'P\x1b\xe8\xb4\x81N#@'
tRp292
ag8
(g10
S'\xd4\xa3p=\nW#@'
tRp293
ag8
(g10
S'\xa8G\xe1z\x14\xae\x1a@'
tRp294
ag8
(g10
S'JX\x93$|\xf2&@'
tRp295
ag8
(g10
S'\x80\xc2\xf5(\\\x8f\x04@'
tRp296
ag8
(g10
S'0\xd0i\x03\x9d6\x1f@'
tRp297
asg15
(lp298
g8
(g9
(S'S13'
I0
I1
tRp299
>>>>>>> 1b59cb2362bd8878d0b6ae118685f40a38747f0f
(I3
S'|'
NNNI13
I1
I0
tbS'="0021600190"'
<<<<<<< HEAD
tRp312
ag5
(g6
(S'S13'
I0
I1
tRp313
=======
tRp300
ag8
(g9
(S'S13'
I0
I1
tRp301
>>>>>>> 1b59cb2362bd8878d0b6ae118685f40a38747f0f
(I3
S'|'
NNNI13
I1
I0
tbS'="0021600416"'
<<<<<<< HEAD
tRp314
ag5
(g6
(S'S13'
I0
I1
tRp315
=======
tRp302
ag8
(g9
(S'S13'
I0
I1
tRp303
>>>>>>> 1b59cb2362bd8878d0b6ae118685f40a38747f0f
(I3
S'|'
NNNI13
I1
I0
tbS'="0021600468"'
<<<<<<< HEAD
tRp316
ag5
(g6
(S'S13'
I0
I1
tRp317
=======
tRp304
ag8
(g9
(S'S13'
I0
I1
tRp305
>>>>>>> 1b59cb2362bd8878d0b6ae118685f40a38747f0f
(I3
S'|'
NNNI13
I1
I0
tbS'="0021600748"'
<<<<<<< HEAD
tRp318
ag5
(g6
(S'S13'
I0
I1
tRp319
=======
tRp306
ag8
(g9
(S'S13'
I0
I1
tRp307
>>>>>>> 1b59cb2362bd8878d0b6ae118685f40a38747f0f
(I3
S'|'
NNNI13
I1
I0
tbS'="0021600955"'
<<<<<<< HEAD
tRp320
ag5
(g6
(S'S13'
I0
I1
tRp321
=======
tRp308
ag8
(g9
(S'S13'
I0
I1
tRp309
>>>>>>> 1b59cb2362bd8878d0b6ae118685f40a38747f0f
(I3
S'|'
NNNI13
I1
I0
tbS'="0021601178"'
<<<<<<< HEAD
tRp322
asg27
(lp323
=======
tRp310
asg25
(lp311
>>>>>>> 1b59cb2362bd8878d0b6ae118685f40a38747f0f
F16.299999999999997
aF17.283333333333331
aF17.25
aF17.383333333333333
aF16.583333333333332
aF19.716666666666669
<<<<<<< HEAD
asg29
(lp324
=======
asg27
(lp312
>>>>>>> 1b59cb2362bd8878d0b6ae118685f40a38747f0f
F27.883333333333326
aF27.866666666666667
aF30.866666666666667
aF22.933333333333334
aF34.966666666666669
aF29.733333333333334
<<<<<<< HEAD
asg31
(lp325
=======
asg29
(lp313
>>>>>>> 1b59cb2362bd8878d0b6ae118685f40a38747f0f
I5
aI4
aI5
aI5
aI3
aI4
<<<<<<< HEAD
asg33
(lp326
g5
(g7
S'JB\xa3\x04e6\xcc?'
tRp327
ag5
(g7
S'\xa3;\xbd\x1a\xf7\xc9\xf1?'
tRp328
ag5
(g7
S'JB\xa3\x04e6\xcc?'
tRp329
ag5
(g7
S'JB\xa3\x04e6\xcc?'
tRp330
ag308
ag5
(g7
S'\xa3;\xbd\x1a\xf7\xc9\xf1?'
tRp331
assg38
g5
(g7
S'\x84$\t\xf3\x87BN@'
tRp332
sg40
(dp333
g11
(lp334
g5
(g7
S'\xca\xc1\x93\x99\xf9\x8e\x1e@'
tRp335
ag5
(g7
S'Pc\x03\xfa\xe0\x06\x0c@'
tRp336
ag5
(g7
S'\xbcX\xf2\x8b%\xbf\x17@'
tRp337
ag5
(g7
S'\xca\xc1\x93\x99\xf9\x8e\x1e@'
tRp338
ag5
(g7
S'\xca\xc1\x93\x99\xf9\x8e\x1e@'
tRp339
ag5
(g7
S'Pc\x03\xfa\xe0\x06\x0c@'
tRp340
ag5
(g7
S'Pc\x03\xfa\xe0\x06\x0c@'
tRp341
asg17
(lp342
g5
(g6
(S'S13'
I0
I1
tRp343
=======
asg31
(lp314
g8
(g10
S'\xdc$\xf9\xe0\x84\xe7\xfb?'
tRp315
ag8
(g10
S'\xdc$\xf9\xe0\x84\xe7\x0b@'
tRp316
ag8
(g10
S'\xdc$\xf9\xe0\x84\xe7\xfb?'
tRp317
ag8
(g10
S'\xdc$\xf9\xe0\x84\xe7\xfb?'
tRp318
ag296
ag8
(g10
S'\xdc$\xf9\xe0\x84\xe7\x0b@'
tRp319
assg37
(dp320
g6
(lp321
g8
(g10
S'\x08\xd7\xa3p=\x8a @'
tRp322
ag8
(g10
S'H\x1b\xe8\xb4\x81N*@'
tRp323
ag8
(g10
S'\xbcX\xf2\x8b%\xbf\x17@'
tRp324
ag8
(g10
S'\xa0p=\n\xd7\xa3!@'
tRp325
ag8
(g10
S'J\x1b\xe8\xb4\x81N!@'
tRp326
ag8
(g10
S'L\x1b\xe8\xb4\x81N"@'
tRp327
ag8
(g10
S'\x1e\x85\xebQ\xb8\xde1@'
tRp328
asg15
(lp329
g8
(g9
(S'S13'
I0
I1
tRp330
>>>>>>> 1b59cb2362bd8878d0b6ae118685f40a38747f0f
(I3
S'|'
NNNI13
I1
I0
tbS'="0021600222"'
<<<<<<< HEAD
tRp344
ag5
(g6
(S'S13'
I0
I1
tRp345
=======
tRp331
ag8
(g9
(S'S13'
I0
I1
tRp332
>>>>>>> 1b59cb2362bd8878d0b6ae118685f40a38747f0f
(I3
S'|'
NNNI13
I1
I0
tbS'="0021600285"'
<<<<<<< HEAD
tRp346
ag5
(g6
(S'S13'
I0
I1
tRp347
=======
tRp333
ag8
(g9
(S'S13'
I0
I1
tRp334
>>>>>>> 1b59cb2362bd8878d0b6ae118685f40a38747f0f
(I3
S'|'
NNNI13
I1
I0
tbS'="0021600342"'
<<<<<<< HEAD
tRp348
ag5
(g6
(S'S13'
I0
I1
tRp349
=======
tRp335
ag8
(g9
(S'S13'
I0
I1
tRp336
>>>>>>> 1b59cb2362bd8878d0b6ae118685f40a38747f0f
(I3
S'|'
NNNI13
I1
I0
tbS'="0021600358"'
<<<<<<< HEAD
tRp350
ag5
(g6
(S'S13'
I0
I1
tRp351
=======
tRp337
ag8
(g9
(S'S13'
I0
I1
tRp338
>>>>>>> 1b59cb2362bd8878d0b6ae118685f40a38747f0f
(I3
S'|'
NNNI13
I1
I0
tbS'="0021600430"'
<<<<<<< HEAD
tRp352
ag5
(g6
(S'S13'
I0
I1
tRp353
=======
tRp339
ag8
(g9
(S'S13'
I0
I1
tRp340
>>>>>>> 1b59cb2362bd8878d0b6ae118685f40a38747f0f
(I3
S'|'
NNNI13
I1
I0
tbS'="0021600832"'
<<<<<<< HEAD
tRp354
ag5
(g6
(S'S13'
I0
I1
tRp355
=======
tRp341
ag8
(g9
(S'S13'
I0
I1
tRp342
>>>>>>> 1b59cb2362bd8878d0b6ae118685f40a38747f0f
(I3
S'|'
NNNI13
I1
I0
tbS'="0021601185"'
<<<<<<< HEAD
tRp356
asg27
(lp357
=======
tRp343
asg25
(lp344
>>>>>>> 1b59cb2362bd8878d0b6ae118685f40a38747f0f
F8.2166666666666668
aF8.7333333333333343
aF8.9333333333333336
aF6.0166666666666666
aF8.4333333333333336
aF10.633333333333333
aF6.0999999999999996
<<<<<<< HEAD
asg29
(lp358
=======
asg27
(lp345
>>>>>>> 1b59cb2362bd8878d0b6ae118685f40a38747f0f
F29.266666666666666
aF24.38333333333334
aF31.599999999999998
aF28.716666666666669
aF28.883333333333336
aF28.383333333333333
aF19.666666666666664
<<<<<<< HEAD
asg31
(lp359
=======
asg29
(lp346
>>>>>>> 1b59cb2362bd8878d0b6ae118685f40a38747f0f
I3
aI4
aI3
aI3
aI3
aI4
aI4
<<<<<<< HEAD
asg33
(lp360
g5
(g7
S'\xca\xc1\x93\x99\xf9\x8e\x1e@'
tRp361
ag5
(g7
S'\xa3;\xbd\x1a\xf7\xc9\xf1?'
tRp362
ag337
ag5
(g7
S'\xca\xc1\x93\x99\xf9\x8e\x1e@'
tRp363
ag5
(g7
S'\xca\xc1\x93\x99\xf9\x8e\x1e@'
tRp364
ag5
(g7
S'\xa3;\xbd\x1a\xf7\xc9\xf1?'
tRp365
ag5
(g7
S'\xa3;\xbd\x1a\xf7\xc9\xf1?'
tRp366
assg82
(dp367
g11
(lp368
g5
(g7
S"E\x16\x0c]\xa6'\xf7?"
tRp369
ag5
(g7
S"E\x16\x0c]\xa6'\xf7?"
tRp370
ag5
(g7
S"E\x16\x0c]\xa6'\xf7?"
tRp371
ag5
(g7
S"E\x16\x0c]\xa6'\xf7?"
tRp372
ag5
(g7
S"E\x16\x0c]\xa6'\xf7?"
tRp373
asg17
(lp374
g5
(g6
(S'S13'
I0
I1
tRp375
=======
asg31
(lp347
g8
(g10
S'\xa6\xdb\xba\xa8\xa3\xed\x14@'
tRp348
ag8
(g10
S'\xdc$\xf9\xe0\x84\xe7\x0b@'
tRp349
ag8
(g10
S'\xa6\xdb\xba\xa8\xa3\xed\x14@'
tRp350
ag8
(g10
S'\xa6\xdb\xba\xa8\xa3\xed\x14@'
tRp351
ag8
(g10
S'\xa6\xdb\xba\xa8\xa3\xed\x14@'
tRp352
ag8
(g10
S'\xdc$\xf9\xe0\x84\xe7\x0b@'
tRp353
ag8
(g10
S'\xdc$\xf9\xe0\x84\xe7\x0b@'
tRp354
assg79
(dp355
g6
(lp356
g8
(g10
S'JX\x93$|\xf2&@'
tRp357
ag8
(g10
S'\x04\xd7\xa3p=\x8a%@'
tRp358
ag8
(g10
S'\xe0z\x14\xaeG\xe1\x10@'
tRp359
ag8
(g10
S'JX\x93$|\xf2&@'
tRp360
ag8
(g10
S'JX\x93$|\xf2&@'
tRp361
asg15
(lp362
g8
(g9
(S'S13'
I0
I1
tRp363
>>>>>>> 1b59cb2362bd8878d0b6ae118685f40a38747f0f
(I3
S'|'
NNNI13
I1
I0
tbS'="0021600034"'
<<<<<<< HEAD
tRp376
ag5
(g6
(S'S13'
I0
I1
tRp377
=======
tRp364
ag8
(g9
(S'S13'
I0
I1
tRp365
>>>>>>> 1b59cb2362bd8878d0b6ae118685f40a38747f0f
(I3
S'|'
NNNI13
I1
I0
tbS'="0021600101"'
<<<<<<< HEAD
tRp378
ag5
(g6
(S'S13'
I0
I1
tRp379
=======
tRp366
ag8
(g9
(S'S13'
I0
I1
tRp367
>>>>>>> 1b59cb2362bd8878d0b6ae118685f40a38747f0f
(I3
S'|'
NNNI13
I1
I0
tbS'="0021600135"'
<<<<<<< HEAD
tRp380
ag5
(g6
(S'S13'
I0
I1
tRp381
=======
tRp368
ag8
(g9
(S'S13'
I0
I1
tRp369
>>>>>>> 1b59cb2362bd8878d0b6ae118685f40a38747f0f
(I3
S'|'
NNNI13
I1
I0
tbS'="0021600258"'
<<<<<<< HEAD
tRp382
ag5
(g6
(S'S13'
I0
I1
tRp383
=======
tRp370
ag8
(g9
(S'S13'
I0
I1
tRp371
>>>>>>> 1b59cb2362bd8878d0b6ae118685f40a38747f0f
(I3
S'|'
NNNI13
I1
I0
tbS'="0021600804"'
<<<<<<< HEAD
tRp384
asg27
(lp385
=======
tRp372
asg25
(lp373
>>>>>>> 1b59cb2362bd8878d0b6ae118685f40a38747f0f
F26.016666666666669
aF24.566666666666666
aF28.933333333333326
aF21.949999999999996
aF25.549999999999997
<<<<<<< HEAD
asg29
(lp386
=======
asg27
(lp374
>>>>>>> 1b59cb2362bd8878d0b6ae118685f40a38747f0f
F26.016666666666669
aF26.766666666666673
aF33.316666666666663
aF21.949999999999999
aF25.550000000000001
<<<<<<< HEAD
asg31
(lp387
=======
asg29
(lp375
>>>>>>> 1b59cb2362bd8878d0b6ae118685f40a38747f0f
I5
aI5
aI5
aI5
aI5
<<<<<<< HEAD
asg33
(lp388
g5
(g7
S'JB\xa3\x04e6\xcc?'
tRp389
ag5
(g7
S'JB\xa3\x04e6\xcc?'
tRp390
ag5
(g7
S'JB\xa3\x04e6\xcc?'
tRp391
ag5
(g7
S'JB\xa3\x04e6\xcc?'
tRp392
ag5
(g7
S'JB\xa3\x04e6\xcc?'
tRp393
asssS'Kevin Durant'
p394
(dp395
g4
g5
(g7
S'X\x86)\xc1Ff,@'
tRp396
sg9
(dp397
g11
(lp398
g5
(g7
S't\xd1\x18Q=g\x15@'
tRp399
asg17
(lp400
g5
(g6
(S'S13'
I0
I1
tRp401
=======
asg31
(lp376
g8
(g10
S'\xdc$\xf9\xe0\x84\xe7\xfb?'
tRp377
ag8
(g10
S'\xdc$\xf9\xe0\x84\xe7\xfb?'
tRp378
ag8
(g10
S'\xdc$\xf9\xe0\x84\xe7\xfb?'
tRp379
ag8
(g10
S'\xdc$\xf9\xe0\x84\xe7\xfb?'
tRp380
ag8
(g10
S'\xdc$\xf9\xe0\x84\xe7\xfb?'
tRp381
asssS'Kevin Durant'
p382
(dp383
g4
(dp384
g6
(lp385
g8
(g10
S'\xd4\x04\xe3\xad\xec\xf3!@'
tRp386
asg15
(lp387
g8
(g9
(S'S13'
I0
I1
tRp388
>>>>>>> 1b59cb2362bd8878d0b6ae118685f40a38747f0f
(I3
S'|'
NNNI13
I1
I0
tbS'="0021600427"'
<<<<<<< HEAD
tRp402
asg27
(lp403
F17.966666666666661
asg29
(lp404
F24.733333333333327
asg31
(lp405
I4
asg33
(lp406
g5
(g7
S'"w\x14\x02\xd1%\xfb?'
tRp407
assg38
g5
(g7
S'\xb9\x15S\\\xf4P6@'
tRp408
sg40
(dp409
g11
(lp410
g5
(g7
S'\xd0\x9b\x14@;X\x06@'
tRp411
ag5
(g7
S'\xd8\xac%QLi\r@'
tRp412
ag5
(g7
S'\x88\xf8\xb4J\xc8\xd6\x15@'
tRp413
asg17
(lp414
g5
(g6
(S'S13'
I0
I1
tRp415
=======
tRp389
asg25
(lp390
F17.966666666666661
asg27
(lp391
F24.733333333333327
asg29
(lp392
I4
asg31
(lp393
g8
(g10
S'\xcdK\x86!\x83\x1d\x16@'
tRp394
assg37
(dp395
g6
(lp396
g8
(g10
S'\xd0\x9b\x14@;X\x06@'
tRp397
ag8
(g10
S'\xd8\xac%QLi\r@'
tRp398
ag8
(g10
S'\x88\xf8\xb4J\xc8\xd6\x15@'
tRp399
asg15
(lp400
g8
(g9
(S'S13'
I0
I1
tRp401
>>>>>>> 1b59cb2362bd8878d0b6ae118685f40a38747f0f
(I3
S'|'
NNNI13
I1
I0
tbS'="0021600351"'
<<<<<<< HEAD
tRp416
ag5
(g6
(S'S13'
I0
I1
tRp417
=======
tRp402
ag8
(g9
(S'S13'
I0
I1
tRp403
>>>>>>> 1b59cb2362bd8878d0b6ae118685f40a38747f0f
(I3
S'|'
NNNI13
I1
I0
tbS'="0041600224"'
<<<<<<< HEAD
tRp418
ag5
(g6
(S'S13'
I0
I1
tRp419
=======
tRp404
ag8
(g9
(S'S13'
I0
I1
tRp405
>>>>>>> 1b59cb2362bd8878d0b6ae118685f40a38747f0f
(I3
S'|'
NNNI13
I1
I0
tbS'="0041600405"'
<<<<<<< HEAD
tRp420
asg27
(lp421
F7.3166666666666664
aF5.2000000000000002
aF7.2166666666666668
asg29
(lp422
F30.916666666666664
aF30.033333333333335
aF28.250000000000007
asg31
(lp423
I2
aI4
aI3
asg33
(lp424
g411
ag5
(g7
S'"w\x14\x02\xd1%\xfb?'
tRp425
ag413
assg82
(dp426
g11
(lp427
g5
(g7
S'\x00M0\xde\xca>\xef?'
tRp428
ag5
(g7
S'\xf4^\x1b\xb1.=\x10@'
tRp429
asg17
(lp430
g5
(g6
(S'S13'
I0
I1
tRp431
=======
tRp406
asg25
(lp407
F7.3166666666666664
aF5.2000000000000002
aF7.2166666666666668
asg27
(lp408
F30.916666666666664
aF30.033333333333335
aF28.250000000000007
asg29
(lp409
I2
aI4
aI3
asg31
(lp410
g397
ag398
ag399
assg79
(dp411
g6
(lp412
g8
(g10
S'\x00M0\xde\xca>\xef?'
tRp413
ag8
(g10
S'\xf4^\x1b\xb1.=\x10@'
tRp414
asg15
(lp415
g8
(g9
(S'S13'
I0
I1
tRp416
>>>>>>> 1b59cb2362bd8878d0b6ae118685f40a38747f0f
(I3
S'|'
NNNI13
I1
I0
tbS'="0021600813"'
<<<<<<< HEAD
tRp432
ag5
(g6
(S'S13'
I0
I1
tRp433
=======
tRp417
ag8
(g9
(S'S13'
I0
I1
tRp418
>>>>>>> 1b59cb2362bd8878d0b6ae118685f40a38747f0f
(I3
S'|'
NNNI13
I1
I0
tbS'="0041600311"'
<<<<<<< HEAD
tRp434
asg27
(lp435
F27.133333333333333
aF29.650000000000002
asg29
(lp436
F32.733333333333334
aF29.650000000000002
asg31
(lp437
I5
aI4
asg33
(lp438
g5
(g7
S'iR\x96\x82\x8d\x88\xd5?'
tRp439
ag5
(g7
S'"w\x14\x02\xd1%\xfb?'
tRp440
asssS'Mike Conley'
p441
(dp442
g4
g5
(g7
S'\x00\x00\x00\x00\x00\x00\x00\x00'
tRp443
sg9
(dp444
g11
(lp445
sg17
(lp446
sg27
(lp447
sg29
(lp448
sg31
(lp449
sg33
(lp450
ssg38
g5
(g7
S"p\x04\r'u_\xfe?"
tRp451
sg40
(dp452
g11
(lp453
g5
(g7
S"p\x04\r'u_\xfe?"
tRp454
asg17
(lp455
g5
(g6
(S'S13'
I0
I1
tRp456
=======
tRp419
asg25
(lp420
F27.133333333333333
aF29.650000000000002
asg27
(lp421
F32.733333333333334
aF29.650000000000002
asg29
(lp422
I5
aI4
asg31
(lp423
g413
ag414
asssS'Mike Conley'
p424
(dp425
g4
(dp426
g6
(lp427
sg15
(lp428
sg25
(lp429
sg27
(lp430
sg29
(lp431
sg31
(lp432
ssg37
(dp433
g6
(lp434
g8
(g10
S"p\x04\r'u_\xfe?"
tRp435
asg15
(lp436
g8
(g9
(S'S13'
I0
I1
tRp437
>>>>>>> 1b59cb2362bd8878d0b6ae118685f40a38747f0f
(I3
S'|'
NNNI13
I1
I0
tbS'="0021600788"'
<<<<<<< HEAD
tRp457
asg27
(lp458
F6.333333333333333
asg29
(lp459
F30.849999999999998
asg31
(lp460
I3
asg33
(lp461
g454
assg82
(dp462
g11
(lp463
sg17
(lp464
sg27
(lp465
sg29
(lp466
sg31
(lp467
sg33
(lp468
sssS'Chris Paul'
p469
(dp470
g4
g5
(g7
S'\xdd\xdbk\x1f^\x86#@'
tRp471
sg9
(dp472
g11
(lp473
g5
(g7
S'\xfb(oU\xdc\xbc\xf9?'
tRp474
asg17
(lp475
g5
(g6
(S'S13'
I0
I1
tRp476
=======
tRp438
asg25
(lp439
F6.333333333333333
asg27
(lp440
F30.849999999999998
asg29
(lp441
I3
asg31
(lp442
g435
assg79
(dp443
g6
(lp444
sg15
(lp445
sg25
(lp446
sg27
(lp447
sg29
(lp448
sg31
(lp449
sssS'Chris Paul'
p450
(dp451
g4
(dp452
g6
(lp453
g8
(g10
S'\xb0\x05[\xb0\x05[\x04@'
tRp454
asg15
(lp455
g8
(g9
(S'S13'
I0
I1
tRp456
>>>>>>> 1b59cb2362bd8878d0b6ae118685f40a38747f0f
(I3
S'|'
NNNI13
I1
I0
tbS'="0021600912"'
<<<<<<< HEAD
tRp477
asg27
(lp478
F14.633333333333335
asg29
(lp479
F29.383333333333333
asg31
(lp480
I5
asg33
(lp481
g5
(g7
S'.)\xb1\xeawV\xcf?'
tRp482
assg38
g5
(g7
S'\x8dU*\xe4\xd070@'
tRp483
sg40
(dp484
g11
(lp485
g5
(g7
S' l\xc1\x16l\xc1\x00@'
tRp486
ag5
(g7
S'\x94>\xe9\x93>\xe9\x12@'
tRp487
ag5
(g7
S'R\x97\x03\xdc\x17&\x0f@'
tRp488
asg17
(lp489
g5
(g6
(S'S13'
I0
I1
tRp490
=======
tRp457
asg25
(lp458
F14.633333333333335
asg27
(lp459
F29.383333333333333
asg29
(lp460
I5
asg31
(lp461
g8
(g10
S'\x86\xca\x80\x1f\xb2\xa5\xfd?'
tRp462
assg37
(dp463
g6
(lp464
g8
(g10
S' l\xc1\x16l\xc1\x00@'
tRp465
ag8
(g10
S'\x94>\xe9\x93>\xe9\x12@'
tRp466
ag8
(g10
S'\xb0\x05[\xb0\x05\xdb @'
tRp467
asg15
(lp468
g8
(g9
(S'S13'
I0
I1
tRp469
>>>>>>> 1b59cb2362bd8878d0b6ae118685f40a38747f0f
(I3
S'|'
NNNI13
I1
I0
tbS'="0021600355"'
<<<<<<< HEAD
tRp491
ag5
(g6
(S'S13'
I0
I1
tRp492
=======
tRp470
ag8
(g9
(S'S13'
I0
I1
tRp471
>>>>>>> 1b59cb2362bd8878d0b6ae118685f40a38747f0f
(I3
S'|'
NNNI13
I1
I0
tbS'="0021601031"'
<<<<<<< HEAD
tRp493
ag5
(g6
(S'S13'
I0
I1
tRp494
=======
tRp472
ag8
(g9
(S'S13'
I0
I1
tRp473
>>>>>>> 1b59cb2362bd8878d0b6ae118685f40a38747f0f
(I3
S'|'
NNNI13
I1
I0
tbS'="0041600172"'
<<<<<<< HEAD
tRp495
asg27
(lp496
F9.3499999999999996
aF8.6833333333333336
aF7.8166666666666664
asg29
(lp497
F29.833333333333329
aF27.199999999999999
aF23.5
asg31
(lp498
I3
aI2
aI4
asg33
(lp499
g486
ag487
ag5
(g7
S'\xa6\x80\x8b\xe8\x1c\xc3\xf3?'
tRp500
assg82
(dp501
g11
(lp502
g5
(g7
S'R\x97\x03\xdc\x17&\x0f@'
tRp503
asg17
(lp504
g5
(g6
(S'S13'
I0
I1
tRp505
=======
tRp474
asg25
(lp475
F9.3499999999999996
aF8.6833333333333336
aF7.8166666666666664
asg27
(lp476
F29.833333333333329
aF27.199999999999999
aF23.5
asg29
(lp477
I3
aI2
aI4
asg31
(lp478
g465
ag466
ag8
(g10
S'\x86\xca\x80\x1f\xb2\xa5\r@'
tRp479
assg79
(dp480
g6
(lp481
g8
(g10
S'\x94>\xe9\x93>\xe9\x17@'
tRp482
asg15
(lp483
g8
(g9
(S'S13'
I0
I1
tRp484
>>>>>>> 1b59cb2362bd8878d0b6ae118685f40a38747f0f
(I3
S'|'
NNNI13
I1
I0
tbS'="0021600183"'
<<<<<<< HEAD
tRp506
asg27
(lp507
F25.950000000000003
asg29
(lp508
F25.949999999999999
asg31
(lp509
I4
asg33
(lp510
g5
(g7
S'\xa6\x80\x8b\xe8\x1c\xc3\xf3?'
tRp511
asssS'Jimmy Butler'
p512
(dp513
g4
g5
(g7
S'\x08\xe1\xd2S3\r!@'
tRp514
sg9
(dp515
g11
(lp516
g5
(g7
S'3\xc2\xcd\xa4\xfe<\x1b@'
tRp517
ag5
(g7
S'3\xc2\xcd\xa4\xfe<\x1b@'
tRp518
asg17
(lp519
g5
(g6
(S'S13'
I0
I1
tRp520
=======
tRp485
asg25
(lp486
F25.950000000000003
asg27
(lp487
F25.949999999999999
asg29
(lp488
I4
asg31
(lp489
g8
(g10
S'\x86\xca\x80\x1f\xb2\xa5\r@'
tRp490
asssS'Jimmy Butler'
p491
(dp492
g4
(dp493
g6
(lp494
g8
(g10
S'\xf8\xa6\xc2\x0e\xa0o\x1c@'
tRp495
ag8
(g10
S'\xf8\xa6\xc2\x0e\xa0o\x1c@'
tRp496
asg15
(lp497
g8
(g9
(S'S13'
I0
I1
tRp498
>>>>>>> 1b59cb2362bd8878d0b6ae118685f40a38747f0f
(I3
S'|'
NNNI13
I1
I0
tbS'="0021600807"'
<<<<<<< HEAD
tRp521
asg27
(lp522
F15.500000000000004
asg29
(lp523
F30.333333333333336
aF30.333333333333336
asg31
(lp524
I3
aI3
asg33
(lp525
g5
(g7
S'3\xc2\xcd\xa4\xfe<\x1b@'
tRp526
ag5
(g7
S'3\xc2\xcd\xa4\xfe<\x1b@'
tRp527
assg38
g5
(g7
S'\x88\xec\x8aD&\x7fB@'
tRp528
sg40
(dp529
g11
(lp530
g5
(g7
S'\x80\x02q\xa1\xe6$\xfc?'
tRp531
ag5
(g7
S'\x80\x02q\xa1\xe6$\xfc?'
tRp532
ag5
(g7
S'3\xc2\xcd\xa4\xfe<\x1b@'
tRp533
ag5
(g7
S'3\xc2\xcd\xa4\xfe<\x1b@'
tRp534
asg17
(lp535
g5
(g6
(S'S13'
I0
I1
tRp536
=======
tRp499
asg25
(lp500
F15.500000000000004
asg27
(lp501
F30.333333333333336
aF30.333333333333336
asg29
(lp502
I3
aI3
asg31
(lp503
g495
ag496
assg37
(dp504
g6
(lp505
g8
(g10
S'\x80\x02q\xa1\xe6$\xfc?'
tRp506
ag8
(g10
S'\x80\x02q\xa1\xe6$\xfc?'
tRp507
ag8
(g10
S'`\r)u\x06\xd6\x1c@'
tRp508
ag8
(g10
S'`\r)u\x06\xd6\x1c@'
tRp509
asg15
(lp510
g8
(g9
(S'S13'
I0
I1
tRp511
>>>>>>> 1b59cb2362bd8878d0b6ae118685f40a38747f0f
(I3
S'|'
NNNI13
I1
I0
tbS'="0021600296"'
<<<<<<< HEAD
tRp537
ag5
(g6
(S'S13'
I0
I1
tRp538
=======
tRp512
ag8
(g9
(S'S13'
I0
I1
tRp513
>>>>>>> 1b59cb2362bd8878d0b6ae118685f40a38747f0f
(I3
S'|'
NNNI13
I1
I0
tbS'="0021600393"'
<<<<<<< HEAD
tRp539
asg27
(lp540
F5.1333333333333329
aF8.4833333333333343
asg29
(lp541
=======
tRp514
asg25
(lp515
F5.1333333333333329
aF8.4833333333333343
asg27
(lp516
>>>>>>> 1b59cb2362bd8878d0b6ae118685f40a38747f0f
F35.683333333333323
aF35.683333333333323
aF30.233333333333334
aF30.233333333333334
<<<<<<< HEAD
asg31
(lp542
=======
asg29
(lp517
>>>>>>> 1b59cb2362bd8878d0b6ae118685f40a38747f0f
I3
aI3
aI3
aI3
<<<<<<< HEAD
asg33
(lp543
g531
ag532
ag5
(g7
S'3\xc2\xcd\xa4\xfe<\x1b@'
tRp544
ag5
(g7
S'3\xc2\xcd\xa4\xfe<\x1b@'
tRp545
assg82
(dp546
g11
(lp547
g5
(g7
S'1\xdag@\xc4\xf2\x08@'
tRp548
ag5
(g7
S'1\xdag@\xc4\xf2\x08@'
tRp549
asg17
(lp550
g5
(g6
(S'S13'
I0
I1
tRp551
=======
asg31
(lp518
g506
ag507
ag508
ag509
assg79
(dp519
g6
(lp520
g8
(g10
S'\x90dr\x18\xe1\xc8"@'
tRp521
ag8
(g10
S'\x90dr\x18\xe1\xc8"@'
tRp522
asg15
(lp523
g8
(g9
(S'S13'
I0
I1
tRp524
>>>>>>> 1b59cb2362bd8878d0b6ae118685f40a38747f0f
(I3
S'|'
NNNI13
I1
I0
tbS'="0021600061"'
<<<<<<< HEAD
tRp552
asg27
(lp553
F28.049999999999997
asg29
(lp554
F28.049999999999997
aF28.049999999999997
asg31
(lp555
I5
aI5
asg33
(lp556
g5
(g7
S'K\xb6\xee\xc6\xb7r\xde?'
tRp557
ag5
(g7
S'K\xb6\xee\xc6\xb7r\xde?'
tRp558
asssS'LeBron James'
p559
(dp560
g4
g5
(g7
S'\x00\x00\x00\x00\x00\x00\x00\x00'
tRp561
sg9
(dp562
g11
(lp563
g5
(g7
S'\x00\x00\x00\x00\x00\x00\x00\x00'
tRp564
asg17
(lp565
g5
(g6
(S'S13'
I0
I1
tRp566
=======
tRp525
asg25
(lp526
F28.049999999999997
asg27
(lp527
F28.049999999999997
aF28.049999999999997
asg29
(lp528
I5
aI5
asg31
(lp529
g8
(g10
S'\x11\x0c_\x92\xde\x0f\x0e@'
tRp530
ag8
(g10
S'\x11\x0c_\x92\xde\x0f\x0e@'
tRp531
asssS'LeBron James'
p532
(dp533
g4
(dp534
g6
(lp535
g8
(g10
S'\x00\x00\x00\x00\x00\x00\x00\x00'
tRp536
asg15
(lp537
g8
(g9
(S'S13'
I0
I1
tRp538
>>>>>>> 1b59cb2362bd8878d0b6ae118685f40a38747f0f
(I3
S'|'
NNNI13
I1
I0
tbS'="0021600657"'
<<<<<<< HEAD
tRp567
asg27
(lp568
F19.600000000000001
asg29
(lp569
F40.333333333333336
asg31
(lp570
I3
asg33
(lp571
g564
assg38
g5
(g7
S'\x00\x00\x00\x00\x00\x00\x00\x00'
tRp572
sg40
(dp573
g11
(lp574
sg17
(lp575
sg27
(lp576
sg29
(lp577
sg31
(lp578
sg33
(lp579
ssg82
(dp580
g11
(lp581
sg17
(lp582
sg27
(lp583
sg29
(lp584
sg31
(lp585
sg33
(lp586
sssS'Stephen Curry'
p587
(dp588
g4
g5
(g7
S'\x97\xc1K\xdc\x98\x18>@'
tRp589
sg9
(dp590
g11
(lp591
g5
(g7
S'0\x07X\xb6\xf9\xb2\x1f@'
tRp592
ag5
(g7
S'\t\xf8\xb1\x1e\x8e\x01\x04@'
tRp593
ag5
(g7
S'8\xec\x8dJ\xd1C\x0f@'
tRp594
ag5
(g7
S'\t\xf8\xb1\x1e\x8e\x01\x04@'
tRp595
asg17
(lp596
g5
(g6
(S'S13'
I0
I1
tRp597
=======
tRp539
asg25
(lp540
F19.600000000000001
asg27
(lp541
F40.333333333333336
asg29
(lp542
I3
asg31
(lp543
g536
assg37
(dp544
g6
(lp545
sg15
(lp546
sg25
(lp547
sg27
(lp548
sg29
(lp549
sg31
(lp550
ssg79
(dp551
g6
(lp552
sg15
(lp553
sg25
(lp554
sg27
(lp555
sg29
(lp556
sg31
(lp557
sssS'Stephen Curry'
p558
(dp559
g4
(dp560
g6
(lp561
g8
(g10
S'0\x07X\xb6\xf9\xb2\x1f@'
tRp562
ag8
(g10
S'v\xe1\t\xb9Z7(@'
tRp563
ag8
(g10
S'8\xec\x8dJ\xd1C\x0f@'
tRp564
ag8
(g10
S'\xf8\xd3$\x83\xc6\x7f\x13@'
tRp565
asg15
(lp566
g8
(g9
(S'S13'
I0
I1
tRp567
>>>>>>> 1b59cb2362bd8878d0b6ae118685f40a38747f0f
(I3
S'|'
NNNI13
I1
I0
tbS'="0021600025"'
<<<<<<< HEAD
tRp598
ag5
(g6
(S'S13'
I0
I1
tRp599
=======
tRp568
ag8
(g9
(S'S13'
I0
I1
tRp569
>>>>>>> 1b59cb2362bd8878d0b6ae118685f40a38747f0f
(I3
S'|'
NNNI13
I1
I0
tbS'="0021600036"'
<<<<<<< HEAD
tRp600
ag5
(g6
(S'S13'
I0
I1
tRp601
=======
tRp570
ag8
(g9
(S'S13'
I0
I1
tRp571
>>>>>>> 1b59cb2362bd8878d0b6ae118685f40a38747f0f
(I3
S'|'
NNNI13
I1
I0
tbS'="0021600244"'
<<<<<<< HEAD
tRp602
ag5
(g6
(S'S13'
I0
I1
tRp603
=======
tRp572
ag8
(g9
(S'S13'
I0
I1
tRp573
>>>>>>> 1b59cb2362bd8878d0b6ae118685f40a38747f0f
(I3
S'|'
NNNI13
I1
I0
tbS'="0021601108"'
<<<<<<< HEAD
tRp604
asg27
(lp605
=======
tRp574
asg25
(lp575
>>>>>>> 1b59cb2362bd8878d0b6ae118685f40a38747f0f
F14.033333333333335
aF16.949999999999999
aF17.933333333333334
aF17.700000000000003
<<<<<<< HEAD
asg29
(lp606
=======
asg27
(lp576
>>>>>>> 1b59cb2362bd8878d0b6ae118685f40a38747f0f
F26.033333333333331
aF21.849999999999998
aF30.050000000000001
aF29.083333333333336
<<<<<<< HEAD
asg31
(lp607
=======
asg29
(lp577
>>>>>>> 1b59cb2362bd8878d0b6ae118685f40a38747f0f
I3
aI5
aI4
aI5
<<<<<<< HEAD
asg33
(lp608
g592
ag5
(g7
S'@6\xd5\xf5\xffc\xd8?'
tRp609
ag5
(g7
S'vW.\x7f\x19\xba\xfe?'
tRp610
ag5
(g7
S'@6\xd5\xf5\xffc\xd8?'
tRp611
assg38
g5
(g7
S'\xcb\x1dk\xe9-)G@'
tRp612
sg40
(dp613
g11
(lp614
g5
(g7
S"\xd8\x85'\xe4j\xdd\x06@"
tRp615
ag5
(g7
S'\x08\xcak(\xaf!\x01@'
tRp616
ag5
(g7
S'\x89 \xdd\xca\xf0m#@'
tRp617
ag5
(g7
S'\x00\x00\x00\x00\x00\x00\x00\x00'
tRp618
ag5
(g7
S'\t\xf8\xb1\x1e\x8e\x01\x04@'
tRp619
ag5
(g7
S'\x00\x95\xa2\x87\xbdQ\xdd?'
tRp620
asg17
(lp621
g5
(g6
(S'S13'
I0
I1
tRp622
=======
asg31
(lp578
g8
(g10
S'\x9b@\x89\xc1#\x98\x1f@'
tRp579
ag8
(g10
S'i\x80[\xd6\x17\x10\x05@'
tRp580
ag564
ag8
(g10
S'i\x80[\xd6\x17\x10\x05@'
tRp581
assg37
(dp582
g6
(lp583
g8
(g10
S"\xd8\x85'\xe4j\xdd\x06@"
tRp584
ag8
(g10
S'\x08\xcak(\xaf!\x01@'
tRp585
ag8
(g10
S'\xfe4\xc9\xa0\xf1\x1f9@'
tRp586
ag8
(g10
S'\x00\x00\x00\x00\x00\x00\x00\x00'
tRp587
ag8
(g10
S'\x90m\xbe\x1c`\x19\x13@'
tRp588
ag8
(g10
S'\x00\x95\xa2\x87\xbdQ\xdd?'
tRp589
asg15
(lp590
g8
(g9
(S'S13'
I0
I1
tRp591
>>>>>>> 1b59cb2362bd8878d0b6ae118685f40a38747f0f
(I3
S'|'
NNNI13
I1
I0
tbS'="0021600078"'
<<<<<<< HEAD
tRp623
ag5
(g6
(S'S13'
I0
I1
tRp624
=======
tRp592
ag8
(g9
(S'S13'
I0
I1
tRp593
>>>>>>> 1b59cb2362bd8878d0b6ae118685f40a38747f0f
(I3
S'|'
NNNI13
I1
I0
tbS'="0021600281"'
<<<<<<< HEAD
tRp625
ag5
(g6
(S'S13'
I0
I1
tRp626
=======
tRp594
ag8
(g9
(S'S13'
I0
I1
tRp595
>>>>>>> 1b59cb2362bd8878d0b6ae118685f40a38747f0f
(I3
S'|'
NNNI13
I1
I0
tbS'="0021600405"'
<<<<<<< HEAD
tRp627
ag5
(g6
(S'S13'
I0
I1
tRp628
=======
tRp596
ag8
(g9
(S'S13'
I0
I1
tRp597
>>>>>>> 1b59cb2362bd8878d0b6ae118685f40a38747f0f
(I3
S'|'
NNNI13
I1
I0
tbS'="0021600889"'
<<<<<<< HEAD
tRp629
ag5
(g6
(S'S13'
I0
I1
tRp630
=======
tRp598
ag8
(g9
(S'S13'
I0
I1
tRp599
>>>>>>> 1b59cb2362bd8878d0b6ae118685f40a38747f0f
(I3
S'|'
NNNI13
I1
I0
tbS'="0041600141"'
<<<<<<< HEAD
tRp631
ag5
(g6
(S'S13'
I0
I1
tRp632
=======
tRp600
ag8
(g9
(S'S13'
I0
I1
tRp601
>>>>>>> 1b59cb2362bd8878d0b6ae118685f40a38747f0f
(I3
S'|'
NNNI13
I1
I0
tbS'="0041600313"'
<<<<<<< HEAD
tRp633
asg27
(lp634
=======
tRp602
asg25
(lp603
>>>>>>> 1b59cb2362bd8878d0b6ae118685f40a38747f0f
F7.8666666666666663
aF9.1166666666666671
aF8.8333333333333339
aF7.666666666666667
aF11.183333333333334
aF7.833333333333333
<<<<<<< HEAD
asg29
(lp635
=======
asg27
(lp604
>>>>>>> 1b59cb2362bd8878d0b6ae118685f40a38747f0f
F31.099999999999998
aF31.816666666666674
aF8.8333333333333339
aF34.183333333333337
aF29.183333333333337
aF33.5
<<<<<<< HEAD
asg31
(lp636
=======
asg29
(lp605
>>>>>>> 1b59cb2362bd8878d0b6ae118685f40a38747f0f
I3
aI4
aI3
aI3
aI5
aI3
<<<<<<< HEAD
asg33
(lp637
g615
ag5
(g7
S'vW.\x7f\x19\xba\xfe?'
tRp638
ag5
(g7
S'\x89 \xdd\xca\xf0m#@'
tRp639
ag618
ag5
(g7
S'@6\xd5\xf5\xffc\xd8?'
tRp640
ag620
assg82
(dp641
g11
(lp642
g5
(g7
S'\x84\\\xad\x0bO\x08\x17@'
tRp643
ag5
(g7
S'*\x8e\x83A^9\x18@'
tRp644
asg17
(lp645
g5
(g6
(S'S13'
I0
I1
tRp646
=======
asg31
(lp606
g584
ag585
ag8
(g10
S'\x9b@\x89\xc1#\x98\x1f@'
tRp607
ag587
ag8
(g10
S'i\x80[\xd6\x17\x10\x05@'
tRp608
ag589
assg79
(dp609
g6
(lp610
g8
(g10
S'\x84\\\xad\x0bO\x08\x17@'
tRp611
ag8
(g10
S'\xa8~\xcf-q*\x1c@'
tRp612
asg15
(lp613
g8
(g9
(S'S13'
I0
I1
tRp614
>>>>>>> 1b59cb2362bd8878d0b6ae118685f40a38747f0f
(I3
S'|'
NNNI13
I1
I0
tbS'="0021600792"'
<<<<<<< HEAD
tRp647
ag5
(g6
(S'S13'
I0
I1
tRp648
=======
tRp615
ag8
(g9
(S'S13'
I0
I1
tRp616
>>>>>>> 1b59cb2362bd8878d0b6ae118685f40a38747f0f
(I3
S'|'
NNNI13
I1
I0
tbS'="0021600906"'
<<<<<<< HEAD
tRp649
asg27
(lp650
F25.616666666666664
aF26.916666666666664
asg29
(lp651
F28.199999999999999
aF26.916666666666664
asg31
(lp652
I4
aI4
asg33
(lp653
g5
(g7
S'vW.\x7f\x19\xba\xfe?'
tRp654
ag5
(g7
S'vW.\x7f\x19\xba\xfe?'
tRp655
asssS'Isaiah Thomas'
p656
(dp657
g4
g5
(g7
S"\r\x81\xed'\xa6\x14&@"
tRp658
sg9
(dp659
g11
(lp660
g5
(g7
S' 6\xfb;\xec\x9c\x11@'
tRp661
ag5
(g7
S'\xe0\x88\xa3\xb6\x9f!\xf8?'
tRp662
asg17
(lp663
g5
(g6
(S'S13'
I0
I1
tRp664
=======
tRp617
asg25
(lp618
F25.616666666666664
aF26.916666666666664
asg27
(lp619
F28.199999999999999
aF26.916666666666664
asg29
(lp620
I4
aI4
asg31
(lp621
g8
(g10
S'i\x80[\xd6\x17\x10\x15@'
tRp622
ag8
(g10
S'i\x80[\xd6\x17\x10\x15@'
tRp623
asssS'Isaiah Thomas'
p624
(dp625
g4
(dp626
g6
(lp627
g8
(g10
S'r\xc6)L\x89\xd9$@'
tRp628
ag8
(g10
S'\xe0\x88\xa3\xb6\x9f!\xf8?'
tRp629
asg15
(lp630
g8
(g9
(S'S13'
I0
I1
tRp631
>>>>>>> 1b59cb2362bd8878d0b6ae118685f40a38747f0f
(I3
S'|'
NNNI13
I1
I0
tbS'="0021600130"'
<<<<<<< HEAD
tRp665
ag5
(g6
(S'S13'
I0
I1
tRp666
=======
tRp632
ag8
(g9
(S'S13'
I0
I1
tRp633
>>>>>>> 1b59cb2362bd8878d0b6ae118685f40a38747f0f
(I3
S'|'
NNNI13
I1
I0
tbS'="0021600929"'
<<<<<<< HEAD
tRp667
asg27
(lp668
F11.349999999999998
aF15.416666666666668
asg29
(lp669
F23.349999999999998
aF32.266666666666666
asg31
(lp670
I4
aI4
asg33
(lp671
g5
(g7
S'\xf1@\xd5!\xbfY\xf6?'
tRp672
ag5
(g7
S'\xf1@\xd5!\xbfY\xf6?'
tRp673
assg38
g5
(g7
S'<\xa7\xcf2 \xa1$@'
tRp674
sg40
(dp675
g11
(lp676
g5
(g7
S'\x00\x00\x00\x00\x00\x00\x00\x00'
tRp677
asg17
(lp678
g5
(g6
(S'S13'
I0
I1
tRp679
=======
tRp634
asg25
(lp635
F11.349999999999998
aF15.416666666666668
asg27
(lp636
F23.349999999999998
aF32.266666666666666
asg29
(lp637
I4
aI4
asg31
(lp638
g8
(g10
S'\xc7\xd7+\xde\xa4M\x12@'
tRp639
ag629
assg37
(dp640
g6
(lp641
g8
(g10
S'\x00\x00\x00\x00\x00\x00\x00\x00'
tRp642
asg15
(lp643
g8
(g9
(S'S13'
I0
I1
tRp644
>>>>>>> 1b59cb2362bd8878d0b6ae118685f40a38747f0f
(I3
S'|'
NNNI13
I1
I0
tbS'="0021600283"'
<<<<<<< HEAD
tRp680
asg27
(lp681
F11.316666666666666
asg29
(lp682
F34.483333333333327
asg31
(lp683
I4
asg33
(lp684
g677
assg82
(dp685
g11
(lp686
g5
(g7
S' 6\xfb;\xec\x9c\x11@'
tRp687
ag5
(g7
S'\x00\x00\x00\x00\x00\x00\x00\x00'
tRp688
asg17
(lp689
g5
(g6
(S'S13'
I0
I1
tRp690
=======
tRp645
asg25
(lp646
F11.316666666666666
asg27
(lp647
F34.483333333333327
asg29
(lp648
I4
asg31
(lp649
g642
assg79
(dp650
g6
(lp651
g8
(g10
S'@\x93\xf6\x18V&"@'
tRp652
ag8
(g10
S'\x00\x00\x00\x00\x00\x00\x00\x00'
tRp653
asg15
(lp654
g8
(g9
(S'S13'
I0
I1
tRp655
>>>>>>> 1b59cb2362bd8878d0b6ae118685f40a38747f0f
(I3
S'|'
NNNI13
I1
I0
tbS'="0021600697"'
<<<<<<< HEAD
tRp691
ag5
(g6
(S'S13'
I0
I1
tRp692
=======
tRp656
ag8
(g9
(S'S13'
I0
I1
tRp657
>>>>>>> 1b59cb2362bd8878d0b6ae118685f40a38747f0f
(I3
S'|'
NNNI13
I1
I0
tbS'="0021600970"'
<<<<<<< HEAD
tRp693
asg27
(lp694
F24.699999999999996
aF27.550000000000004
asg29
(lp695
F24.699999999999996
aF33.933333333333337
asg31
(lp696
I4
aI5
asg33
(lp697
g5
(g7
S'\xf1@\xd5!\xbfY\xf6?'
tRp698
ag688
asssS'Kawhi Leonard'
p699
(dp700
g4
g5
(g7
S'\x16\xc4\x91\xa4\x96\xde,@'
tRp701
sg9
(dp702
g11
(lp703
g5
(g7
S'\xab\xf9I\x8b\x97\xd1\x02@'
tRp704
ag5
(g7
S'\x84 OZ\xa0Q\x1b@'
tRp705
asg17
(lp706
g5
(g6
(S'S13'
I0
I1
tRp707
=======
tRp658
asg25
(lp659
F24.699999999999996
aF27.550000000000004
asg27
(lp660
F24.699999999999996
aF33.933333333333337
asg29
(lp661
I4
aI5
asg31
(lp662
g8
(g10
S'\xc7\xd7+\xde\xa4M\x12@'
tRp663
ag653
asssS'Kawhi Leonard'
p664
(dp665
g4
(dp666
g6
(lp667
g8
(g10
S'\xa8\rt\xda@g&@'
tRp668
ag8
(g10
S't\xda@\xa7\r4&@'
tRp669
asg15
(lp670
g8
(g9
(S'S13'
I0
I1
tRp671
>>>>>>> 1b59cb2362bd8878d0b6ae118685f40a38747f0f
(I3
S'|'
NNNI13
I1
I0
tbS'="0021600016"'
<<<<<<< HEAD
tRp708
ag5
(g6
(S'S13'
I0
I1
tRp709
=======
tRp672
ag8
(g9
(S'S13'
I0
I1
tRp673
>>>>>>> 1b59cb2362bd8878d0b6ae118685f40a38747f0f
(I3
S'|'
NNNI13
I1
I0
tbS'="0021600037"'
<<<<<<< HEAD
tRp710
asg27
(lp711
F12.866666666666665
aF13.200000000000003
asg29
(lp712
F22.916666666666664
aF23.016666666666666
asg31
(lp713
I5
aI3
asg33
(lp714
g5
(g7
S' \x91\x1c\xe8Z\xf4\xd6?'
tRp715
ag5
(g7
S'\x84 OZ\xa0Q\x1b@'
tRp716
assg38
g5
(g7
S'\x8e\xb1zj\xed\xbb6@'
tRp717
sg40
(dp718
g11
(lp719
g5
(g7
S'P\xf2\x8b%\xbfX\x0f@'
tRp720
asg17
(lp721
g5
(g6
(S'S13'
I0
I1
tRp722
=======
tRp674
asg25
(lp675
F12.866666666666665
aF13.200000000000003
asg27
(lp676
F22.916666666666664
aF23.016666666666666
asg29
(lp677
I5
aI3
asg31
(lp678
g8
(g10
S'TFd\xbc\x91\xe9\t@'
tRp679
ag8
(g10
S'\xbe4KM-o#@'
tRp680
assg37
(dp681
g6
(lp682
g8
(g10
S'P\xf2\x8b%\xbfX\x0f@'
tRp683
asg15
(lp684
g8
(g9
(S'S13'
I0
I1
tRp685
>>>>>>> 1b59cb2362bd8878d0b6ae118685f40a38747f0f
(I3
S'|'
NNNI13
I1
I0
tbS'="0041600153"'
<<<<<<< HEAD
tRp723
asg27
(lp724
F7.5499999999999998
asg29
(lp725
F30.200000000000003
asg31
(lp726
I2
asg33
(lp727
g720
assg82
(dp728
g11
(lp729
g5
(g7
S'\x80\x14\xaeG\xe1z\x0f@'
tRp730
ag5
(g7
S'w\xa5YSy\xcb\x16@'
tRp731
asg17
(lp732
g5
(g6
(S'S13'
I0
I1
tRp733
=======
tRp686
asg25
(lp687
F7.5499999999999998
asg27
(lp688
F30.200000000000003
asg29
(lp689
I2
asg31
(lp690
g683
assg79
(dp691
g6
(lp692
g8
(g10
S'\x80\x14\xaeG\xe1z\x0f@'
tRp693
ag8
(g10
S'\xc8\x92_,\xf9E\x1a@'
tRp694
asg15
(lp695
g8
(g9
(S'S13'
I0
I1
tRp696
>>>>>>> 1b59cb2362bd8878d0b6ae118685f40a38747f0f
(I3
S'|'
NNNI13
I1
I0
tbS'="0021600625"'
<<<<<<< HEAD
tRp734
ag5
(g6
(S'S13'
I0
I1
tRp735
=======
tRp697
ag8
(g9
(S'S13'
I0
I1
tRp698
>>>>>>> 1b59cb2362bd8878d0b6ae118685f40a38747f0f
(I3
S'|'
NNNI13
I1
I0
tbS'="0021600902"'
<<<<<<< HEAD
tRp736
asg27
(lp737
F30.18333333333333
aF27.549999999999997
asg29
(lp738
F30.18333333333333
aF27.549999999999997
asg31
(lp739
I4
aI4
asg33
(lp740
g5
(g7
S'\x9er\xf7\xde\xff\xe8\xfc?'
tRp741
ag5
(g7
S'\x9er\xf7\xde\xff\xe8\xfc?'
tRp742
asssS'Rudy Gobert'
p743
(dp744
g4
g5
(g7
S'\x9cqM\x17\xd8\xa24@'
tRp745
sg9
(dp746
g11
(lp747
g5
(g7
S'fV\xe2\xba\r\x12\x03@'
tRp748
aI0
ag5
(g7
S'\x00\xe8\xe7\xe7\xe7\xe7\xfb?'
tRp749
ag5
(g7
S'\x00e\x00K>\x11\x17@'
tRp750
ag5
(g7
S'fV\xe2\xba\r\x12\x03@'
tRp751
ag5
(g7
S'\x98\x93\x93\x93\x93\x93\x1f@'
tRp752
ag5
(g7
S'\xd8*X\xe40\xed)@'
tRp753
ag5
(g7
S'fV\xe2\xba\r\x12\x03@'
tRp754
asg17
(lp755
g5
(g6
(S'S13'
I0
I1
tRp756
=======
tRp699
asg25
(lp700
F30.18333333333333
aF27.549999999999997
asg27
(lp701
F30.18333333333333
aF27.549999999999997
asg29
(lp702
I4
aI4
asg31
(lp703
g693
ag8
(g10
S'TFd\xbc\x91\xe9\x19@'
tRp704
asssS'Rudy Gobert'
p705
(dp706
g4
(dp707
g6
(lp708
g8
(g10
S"vtttt\xf4'@"
tRp709
aI0
ag8
(g10
S'\x00\xe8\xe7\xe7\xe7\xe7\xfb?'
tRp710
ag8
(g10
S'TRRRRR!@'
tRp711
ag8
(g10
S'\x90\x93\x93\x93\x93\x93\x1c@'
tRp712
ag8
(g10
S'\x98\x93\x93\x93\x93\x93\x1f@'
tRp713
ag8
(g10
S'DAAAAA+@'
tRp714
ag8
(g10
S'\x84\x85\x85\x85\x85\x85%@'
tRp715
asg15
(lp716
g8
(g9
(S'S13'
I0
I1
tRp717
>>>>>>> 1b59cb2362bd8878d0b6ae118685f40a38747f0f
(I3
S'|'
NNNI13
I1
I0
tbS'="0021600062"'
<<<<<<< HEAD
tRp757
ag5
(g6
(S'S13'
I0
I1
tRp758
=======
tRp718
ag8
(g9
(S'S13'
I0
I1
tRp719
>>>>>>> 1b59cb2362bd8878d0b6ae118685f40a38747f0f
(I3
S'|'
NNNI13
I1
I0
tbS'="0021600093"'
<<<<<<< HEAD
tRp759
ag5
(g6
(S'S13'
I0
I1
tRp760
=======
tRp720
ag8
(g9
(S'S13'
I0
I1
tRp721
>>>>>>> 1b59cb2362bd8878d0b6ae118685f40a38747f0f
(I3
S'|'
NNNI13
I1
I0
tbS'="0021600136"'
<<<<<<< HEAD
tRp761
ag5
(g6
(S'S13'
I0
I1
tRp762
=======
tRp722
ag8
(g9
(S'S13'
I0
I1
tRp723
>>>>>>> 1b59cb2362bd8878d0b6ae118685f40a38747f0f
(I3
S'|'
NNNI13
I1
I0
tbS'="0021600197"'
<<<<<<< HEAD
tRp763
ag5
(g6
(S'S13'
I0
I1
tRp764
=======
tRp724
ag8
(g9
(S'S13'
I0
I1
tRp725
>>>>>>> 1b59cb2362bd8878d0b6ae118685f40a38747f0f
(I3
S'|'
NNNI13
I1
I0
tbS'="0021600556"'
<<<<<<< HEAD
tRp765
ag5
(g6
(S'S13'
I0
I1
tRp766
=======
tRp726
ag8
(g9
(S'S13'
I0
I1
tRp727
>>>>>>> 1b59cb2362bd8878d0b6ae118685f40a38747f0f
(I3
S'|'
NNNI13
I1
I0
tbS'="0021600576"'
<<<<<<< HEAD
tRp767
ag5
(g6
(S'S13'
I0
I1
tRp768
=======
tRp728
ag8
(g9
(S'S13'
I0
I1
tRp729
>>>>>>> 1b59cb2362bd8878d0b6ae118685f40a38747f0f
(I3
S'|'
NNNI13
I1
I0
tbS'="0021600903"'
<<<<<<< HEAD
tRp769
ag5
(g6
(S'S13'
I0
I1
tRp770
=======
tRp730
ag8
(g9
(S'S13'
I0
I1
tRp731
>>>>>>> 1b59cb2362bd8878d0b6ae118685f40a38747f0f
(I3
S'|'
NNNI13
I1
I0
tbS'="0021601185"'
<<<<<<< HEAD
tRp771
asg27
(lp772
=======
tRp732
asg25
(lp733
>>>>>>> 1b59cb2362bd8878d0b6ae118685f40a38747f0f
F8.5999999999999979
aF14.083333333333334
aF15.250000000000004
aF9.7499999999999982
aF15.35
aF16.000000000000004
aF12.133333333333329
aF18.333333333333332
<<<<<<< HEAD
asg29
(lp773
=======
asg27
(lp734
>>>>>>> 1b59cb2362bd8878d0b6ae118685f40a38747f0f
F22.833333333333332
aF20.166666666666671
aF33.066666666666663
aF26.149999999999999
aF27.666666666666671
aF26.916666666666664
aF21.18333333333333
aF24.050000000000004
<<<<<<< HEAD
asg31
(lp774
=======
asg29
(lp735
>>>>>>> 1b59cb2362bd8878d0b6ae118685f40a38747f0f
I5
aI6
aI5
aI4
aI5
aI3
aI3
aI5
<<<<<<< HEAD
asg33
(lp775
g5
(g7
S'\xb2\xba~F\x85\x03\xd7?'
tRp776
aI0
ag5
(g7
S'\xb2\xba~F\x85\x03\xd7?'
tRp777
ag5
(g7
S'\x00\xce!\xabEE\xfd?'
tRp778
ag5
(g7
S'\xb2\xba~F\x85\x03\xd7?'
tRp779
ag752
ag5
(g7
S'\xd8*X\xe40\xed)@'
tRp780
ag5
(g7
S'\xb2\xba~F\x85\x03\xd7?'
tRp781
assg38
g5
(g7
S'z7\xb9\xfb\x81LG@'
tRp782
sg40
(dp783
g11
(lp784
g5
(g7
S'bccccc!@'
tRp785
asg17
(lp786
g5
(g6
(S'S13'
I0
I1
tRp787
=======
asg31
(lp736
g8
(g10
S'mE\xc4\xc1_\x13\x00@'
tRp737
aI0
ag710
ag8
(g10
S'mE\xc4\xc1_\x13\x10@'
tRp738
ag8
(g10
S'mE\xc4\xc1_\x13\x00@'
tRp739
ag8
(g10
S'&h\xa6\xa2\x0f\x1d\x18@'
tRp740
ag8
(g10
S'&h\xa6\xa2\x0f\x1d\x18@'
tRp741
ag8
(g10
S'mE\xc4\xc1_\x13\x00@'
tRp742
assg37
(dp743
g6
(lp744
g8
(g10
S'bccccc!@'
tRp745
asg15
(lp746
g8
(g9
(S'S13'
I0
I1
tRp747
>>>>>>> 1b59cb2362bd8878d0b6ae118685f40a38747f0f
(I3
S'|'
NNNI13
I1
I0
tbS'="0021600035"'
<<<<<<< HEAD
tRp788
asg27
(lp789
F5.8833333333333337
asg29
(lp790
F26.116666666666671
asg31
(lp791
I3
asg33
(lp792
g785
assg82
(dp793
g11
(lp794
g5
(g7
S'fV\xe2\xba\r\x12\x03@'
tRp795
aI0
asg17
(lp796
g5
(g6
(S'S13'
I0
I1
tRp797
=======
tRp748
asg25
(lp749
F5.8833333333333337
asg27
(lp750
F26.116666666666671
asg29
(lp751
I3
asg31
(lp752
g8
(g10
S'&h\xa6\xa2\x0f\x1d\x18@'
tRp753
assg79
(dp754
g6
(lp755
g8
(g10
S'\xdc\xda\xda\xda\xda\xda)@'
tRp756
aI0
asg15
(lp757
g8
(g9
(S'S13'
I0
I1
tRp758
>>>>>>> 1b59cb2362bd8878d0b6ae118685f40a38747f0f
(I3
S'|'
NNNI13
I1
I0
tbS'="0021600151"'
<<<<<<< HEAD
tRp798
ag5
(g6
(S'S13'
I0
I1
tRp799
=======
tRp759
ag8
(g9
(S'S13'
I0
I1
tRp760
>>>>>>> 1b59cb2362bd8878d0b6ae118685f40a38747f0f
(I3
S'|'
NNNI13
I1
I0
tbS'="0041600222"'
<<<<<<< HEAD
tRp800
asg27
(lp801
F20.116666666666667
aF24.866666666666667
asg29
(lp802
F21.883333333333333
aF24.866666666666664
asg31
(lp803
I5
aI6
asg33
(lp804
g5
(g7
S'\xb2\xba~F\x85\x03\xd7?'
tRp805
aI0
asssS'Giannis Antetokounmpo'
p806
(dp807
g4
g5
(g7
S'\xbd\xdex\xe5\x7fBC@'
tRp808
sg9
(dp809
g11
(lp810
g5
(g7
S'\x9a\x93n\x04\xa5\xc3"@'
tRp811
ag5
(g7
S'\x8d\x90+q\xa6?\x10@'
tRp812
ag5
(g7
S'Hg\xa0\x0f\x9c\xd8\xfa?'
tRp813
ag5
(g7
S'\x8d\x90+q\xa6?\x10@'
tRp814
aI0
ag5
(g7
S'\x8d\x90+q\xa6?\x10@'
tRp815
ag5
(g7
S'\x8d\x90+q\xa6?\x10@'
tRp816
asg17
(lp817
g5
(g6
(S'S13'
I0
I1
tRp818
=======
tRp761
asg25
(lp762
F20.116666666666667
aF24.866666666666667
asg27
(lp763
F21.883333333333333
aF24.866666666666664
asg29
(lp764
I5
aI6
asg31
(lp765
g8
(g10
S'mE\xc4\xc1_\x13\x00@'
tRp766
aI0
asssS'Giannis Antetokounmpo'
p767
(dp768
g4
(dp769
g6
(lp770
g8
(g10
S"\x1c\xfb\xb1\x1f\xfb\xc1'@"
tRp771
ag8
(g10
S'>\x1d\xd4A\x1dd&@'
tRp772
ag8
(g10
S'Fx\x8c-\x07\xdb&@'
tRp773
ag8
(g10
S'\xea\xc7~\xec\xc7\x8e%@'
tRp774
aI0
ag8
(g10
S'P.\xe5R.u%@'
tRp775
ag8
(g10
S'\xb8m\xdb\xb6m\xfb\x15@'
tRp776
asg15
(lp777
g8
(g9
(S'S13'
I0
I1
tRp778
>>>>>>> 1b59cb2362bd8878d0b6ae118685f40a38747f0f
(I3
S'|'
NNNI13
I1
I0
tbS'="0021600085"'
<<<<<<< HEAD
tRp819
ag5
(g6
(S'S13'
I0
I1
tRp820
=======
tRp779
ag8
(g9
(S'S13'
I0
I1
tRp780
>>>>>>> 1b59cb2362bd8878d0b6ae118685f40a38747f0f
(I3
S'|'
NNNI13
I1
I0
tbS'="0021600291"'
<<<<<<< HEAD
tRp821
ag5
(g6
(S'S13'
I0
I1
tRp822
=======
tRp781
ag8
(g9
(S'S13'
I0
I1
tRp782
>>>>>>> 1b59cb2362bd8878d0b6ae118685f40a38747f0f
(I3
S'|'
NNNI13
I1
I0
tbS'="0021600340"'
<<<<<<< HEAD
tRp823
ag5
(g6
(S'S13'
I0
I1
tRp824
=======
tRp783
ag8
(g9
(S'S13'
I0
I1
tRp784
>>>>>>> 1b59cb2362bd8878d0b6ae118685f40a38747f0f
(I3
S'|'
NNNI13
I1
I0
tbS'="0021600548"'
<<<<<<< HEAD
tRp825
ag5
(g6
(S'S13'
I0
I1
tRp826
=======
tRp785
ag8
(g9
(S'S13'
I0
I1
tRp786
>>>>>>> 1b59cb2362bd8878d0b6ae118685f40a38747f0f
(I3
S'|'
NNNI13
I1
I0
tbS'="0021600615"'
<<<<<<< HEAD
tRp827
ag5
(g6
(S'S13'
I0
I1
tRp828
=======
tRp787
ag8
(g9
(S'S13'
I0
I1
tRp788
>>>>>>> 1b59cb2362bd8878d0b6ae118685f40a38747f0f
(I3
S'|'
NNNI13
I1
I0
tbS'="0021600860"'
<<<<<<< HEAD
tRp829
ag5
(g6
(S'S13'
I0
I1
tRp830
=======
tRp789
ag8
(g9
(S'S13'
I0
I1
tRp790
>>>>>>> 1b59cb2362bd8878d0b6ae118685f40a38747f0f
(I3
S'|'
NNNI13
I1
I0
tbS'="0021600912"'
<<<<<<< HEAD
tRp831
asg27
(lp832
=======
tRp791
asg25
(lp792
>>>>>>> 1b59cb2362bd8878d0b6ae118685f40a38747f0f
F15.950000000000003
aF17.266666666666666
aF10.566666666666663
aF16.766666666666669
aF18.633333333333333
aF14.216666666666667
aF12.716666666666669
<<<<<<< HEAD
asg29
(lp833
=======
asg27
(lp793
>>>>>>> 1b59cb2362bd8878d0b6ae118685f40a38747f0f
F25.06666666666667
aF25.750000000000004
aF20.36666666666666
aF26.166666666666668
aF28.866666666666664
aF26.216666666666669
aF31.449999999999996
<<<<<<< HEAD
asg31
(lp834
=======
asg29
(lp794
>>>>>>> 1b59cb2362bd8878d0b6ae118685f40a38747f0f
I3
aI4
aI5
aI4
aI6
aI4
aI4
<<<<<<< HEAD
asg33
(lp835
g5
(g7
S'\x9a\x93n\x04\xa5\xc3"@'
tRp836
ag5
(g7
S'\xc0\xcc\x02c\xb0\x9e\xf4?'
tRp837
ag5
(g7
S'\xb9\x088\xb5\xa7f\xd0?'
tRp838
ag5
(g7
S'\xc0\xcc\x02c\xb0\x9e\xf4?'
tRp839
aI0
ag5
(g7
S'\xc0\xcc\x02c\xb0\x9e\xf4?'
tRp840
ag5
(g7
S'\xc0\xcc\x02c\xb0\x9e\xf4?'
tRp841
assg38
g5
(g7
S'V8M\xccT\xedM@'
tRp842
sg40
(dp843
g11
(lp844
g5
(g7
S'\x8d\x90+q\xa6?\x10@'
tRp845
ag5
(g7
S'\x84:\xa8\x83:\xc8\x13@'
tRp846
ag5
(g7
S'Hg\xa0\x0f\x9c\xd8\xfa?'
tRp847
ag5
(g7
S'N.\xe5R.\xf5!@'
tRp848
ag5
(g7
S'\x8d\x90+q\xa6?\x10@'
tRp849
asg17
(lp850
g5
(g6
(S'S13'
I0
I1
tRp851
=======
asg31
(lp795
g8
(g10
S'\xbcH\x05\x05?\xd8\x14@'
tRp796
ag8
(g10
S'\xf7`\\\xb1\xfe\xca\x0b@'
tRp797
ag8
(g10
S'\xf7`\\\xb1\xfe\xca\xfb?'
tRp798
ag8
(g10
S'\xf7`\\\xb1\xfe\xca\x0b@'
tRp799
aI0
ag8
(g10
S'\xf7`\\\xb1\xfe\xca\x0b@'
tRp800
ag8
(g10
S'\xf7`\\\xb1\xfe\xca\x0b@'
tRp801
assg37
(dp802
g6
(lp803
g8
(g10
S'@\x1d\xd4A\x1d\xe4%@'
tRp804
ag8
(g10
S'\x84:\xa8\x83:\xc8\x13@'
tRp805
ag8
(g10
S'@\xb9\x94K\xb9\xd4\r@'
tRp806
ag8
(g10
S'N.\xe5R.\xf5!@'
tRp807
ag8
(g10
S'`?\xf6c?\x86-@'
tRp808
asg15
(lp809
g8
(g9
(S'S13'
I0
I1
tRp810
>>>>>>> 1b59cb2362bd8878d0b6ae118685f40a38747f0f
(I3
S'|'
NNNI13
I1
I0
tbS'="0021600232"'
<<<<<<< HEAD
tRp852
ag5
(g6
(S'S13'
I0
I1
tRp853
=======
tRp811
ag8
(g9
(S'S13'
I0
I1
tRp812
>>>>>>> 1b59cb2362bd8878d0b6ae118685f40a38747f0f
(I3
S'|'
NNNI13
I1
I0
tbS'="0021600497"'
<<<<<<< HEAD
tRp854
ag5
(g6
(S'S13'
I0
I1
tRp855
=======
tRp813
ag8
(g9
(S'S13'
I0
I1
tRp814
>>>>>>> 1b59cb2362bd8878d0b6ae118685f40a38747f0f
(I3
S'|'
NNNI13
I1
I0
tbS'="0021600698"'
<<<<<<< HEAD
tRp856
ag5
(g6
(S'S13'
I0
I1
tRp857
=======
tRp815
ag8
(g9
(S'S13'
I0
I1
tRp816
>>>>>>> 1b59cb2362bd8878d0b6ae118685f40a38747f0f
(I3
S'|'
NNNI13
I1
I0
tbS'="0021600993"'
<<<<<<< HEAD
tRp858
ag5
(g6
(S'S13'
I0
I1
tRp859
=======
tRp817
ag8
(g9
(S'S13'
I0
I1
tRp818
>>>>>>> 1b59cb2362bd8878d0b6ae118685f40a38747f0f
(I3
S'|'
NNNI13
I1
I0
tbS'="0021601013"'
<<<<<<< HEAD
tRp860
asg27
(lp861
=======
tRp819
asg25
(lp820
>>>>>>> 1b59cb2362bd8878d0b6ae118685f40a38747f0f
F7.9666666666666668
aF9.4499999999999993
aF5.083333333333333
aF6.8666666666666663
aF7.4333333333333336
<<<<<<< HEAD
asg29
(lp862
=======
asg27
(lp821
>>>>>>> 1b59cb2362bd8878d0b6ae118685f40a38747f0f
F26
aF31.999999999999996
aF33.216666666666669
aF27.966666666666672
aF22.183333333333337
<<<<<<< HEAD
asg31
(lp863
=======
asg29
(lp822
>>>>>>> 1b59cb2362bd8878d0b6ae118685f40a38747f0f
I4
aI3
aI5
aI3
aI4
<<<<<<< HEAD
asg33
(lp864
g5
(g7
S'\xc0\xcc\x02c\xb0\x9e\xf4?'
tRp865
ag846
ag5
(g7
S'\xb9\x088\xb5\xa7f\xd0?'
tRp866
ag848
ag5
(g7
S'\xc0\xcc\x02c\xb0\x9e\xf4?'
tRp867
assg82
(dp868
g11
(lp869
g5
(g7
S'\x8d\x90+q\xa6?\x10@'
tRp870
ag5
(g7
S'\x00\x86a\x18\x86\xa1\x08@'
tRp871
ag5
(g7
S'Hg\xa0\x0f\x9c\xd8\xfa?'
tRp872
ag5
(g7
S'\x00\x00\x00\x00\x00\x00\x00\x00'
tRp873
asg17
(lp874
g5
(g6
(S'S13'
I0
I1
tRp875
=======
asg31
(lp823
g8
(g10
S'\xf7`\\\xb1\xfe\xca\x0b@'
tRp824
ag805
ag8
(g10
S'\xf7`\\\xb1\xfe\xca\xfb?'
tRp825
ag8
(g10
S'\xbcH\x05\x05?\xd8\x14@'
tRp826
ag8
(g10
S'\xf7`\\\xb1\xfe\xca\x0b@'
tRp827
assg79
(dp828
g6
(lp829
g8
(g10
S'`?\xf6c?\x86/@'
tRp830
ag8
(g10
S'\x00\x86a\x18\x86\xa1\x08@'
tRp831
ag8
(g10
S'T.\xe5R.\xf5%@'
tRp832
ag8
(g10
S'\x00\x00\x00\x00\x00\x00\x00\x00'
tRp833
asg15
(lp834
g8
(g9
(S'S13'
I0
I1
tRp835
>>>>>>> 1b59cb2362bd8878d0b6ae118685f40a38747f0f
(I3
S'|'
NNNI13
I1
I0
tbS'="0021600090"'
<<<<<<< HEAD
tRp876
ag5
(g6
(S'S13'
I0
I1
tRp877
=======
tRp836
ag8
(g9
(S'S13'
I0
I1
tRp837
>>>>>>> 1b59cb2362bd8878d0b6ae118685f40a38747f0f
(I3
S'|'
NNNI13
I1
I0
tbS'="0021600761"'
<<<<<<< HEAD
tRp878
ag5
(g6
(S'S13'
I0
I1
tRp879
=======
tRp838
ag8
(g9
(S'S13'
I0
I1
tRp839
>>>>>>> 1b59cb2362bd8878d0b6ae118685f40a38747f0f
(I3
S'|'
NNNI13
I1
I0
tbS'="0021600809"'
<<<<<<< HEAD
tRp880
ag5
(g6
(S'S13'
I0
I1
tRp881
=======
tRp840
ag8
(g9
(S'S13'
I0
I1
tRp841
>>>>>>> 1b59cb2362bd8878d0b6ae118685f40a38747f0f
(I3
S'|'
NNNI13
I1
I0
tbS'="0041600121"'
<<<<<<< HEAD
tRp882
asg27
(lp883
=======
tRp842
asg25
(lp843
>>>>>>> 1b59cb2362bd8878d0b6ae118685f40a38747f0f
F16.983333333333334
aF25.000000000000004
aF25.966666666666661
aF28.100000000000001
<<<<<<< HEAD
asg29
(lp884
=======
asg27
(lp844
>>>>>>> 1b59cb2362bd8878d0b6ae118685f40a38747f0f
F21.183333333333337
aF33.866666666666674
aF25.966666666666661
aF38.333333333333336
<<<<<<< HEAD
asg31
(lp885
=======
asg29
(lp845
>>>>>>> 1b59cb2362bd8878d0b6ae118685f40a38747f0f
I4
aI4
aI5
aI4
<<<<<<< HEAD
asg33
(lp886
g5
(g7
S'\xc0\xcc\x02c\xb0\x9e\xf4?'
tRp887
ag5
(g7
S'\xc0\xcc\x02c\xb0\x9e\xf4?'
tRp888
ag5
(g7
S'\xb9\x088\xb5\xa7f\xd0?'
tRp889
ag873
asssS'Russell Westbrook'
p890
(dp891
g4
g5
(g7
S'\xa5\xba1\x9e\xeak\xf9?'
tRp892
sg9
(dp893
g11
(lp894
sg17
(lp895
sg27
(lp896
sg29
(lp897
sg31
(lp898
sg33
(lp899
ssg38
g5
(g7
S'\xb2\x87!\xe2\x0c\xa40@'
tRp900
sg40
(dp901
g11
(lp902
g5
(g7
S'\\\xa3\x1f\xa5@q\xfe?'
tRp903
ag5
(g7
S'\xe8\t\x8e\x9e\xe0\xe8\x1f@'
tRp904
ag5
(g7
S'\x08,\xb0\xc0\x02\x0b\x1b@'
tRp905
asg17
(lp906
g5
(g6
(S'S13'
I0
I1
tRp907
=======
asg31
(lp846
g8
(g10
S'\xf7`\\\xb1\xfe\xca\x0b@'
tRp847
ag831
ag8
(g10
S'\xf7`\\\xb1\xfe\xca\xfb?'
tRp848
ag833
asssS'Russell Westbrook'
p849
(dp850
g4
(dp851
g6
(lp852
sg15
(lp853
sg25
(lp854
sg27
(lp855
sg29
(lp856
sg31
(lp857
ssg37
(dp858
g6
(lp859
g8
(g10
S"l\x92\x16'iq\x1e@"
tRp860
ag8
(g10
S'\xe8\t\x8e\x9e\xe0\xe8\x1f@'
tRp861
ag8
(g10
S'\x08,\xb0\xc0\x02\x0b\x1b@'
tRp862
asg15
(lp863
g8
(g9
(S'S13'
I0
I1
tRp864
>>>>>>> 1b59cb2362bd8878d0b6ae118685f40a38747f0f
(I3
S'|'
NNNI13
I1
I0
tbS'="0021600126"'
<<<<<<< HEAD
tRp908
ag5
(g6
(S'S13'
I0
I1
tRp909
=======
tRp865
ag8
(g9
(S'S13'
I0
I1
tRp866
>>>>>>> 1b59cb2362bd8878d0b6ae118685f40a38747f0f
(I3
S'|'
NNNI13
I1
I0
tbS'="0021600341"'
<<<<<<< HEAD
tRp910
ag5
(g6
(S'S13'
I0
I1
tRp911
=======
tRp867
ag8
(g9
(S'S13'
I0
I1
tRp868
>>>>>>> 1b59cb2362bd8878d0b6ae118685f40a38747f0f
(I3
S'|'
NNNI13
I1
I0
tbS'="0021600770"'
<<<<<<< HEAD
tRp912
asg27
(lp913
F7.9333333333333336
aF8.5333333333333332
aF9.2333333333333343
asg29
(lp914
F27.350000000000005
aF26.983333333333334
aF28.200000000000003
asg31
(lp915
I5
aI3
aI3
asg33
(lp916
g5
(g7
S'C]\xceb\x85\x82\xd2?'
tRp917
ag904
ag905
assg82
(dp918
g11
(lp919
sg17
(lp920
sg27
(lp921
sg29
(lp922
sg31
(lp923
sg33
(lp924
sssS'DeAndre Jordan'
p925
(dp926
g4
g5
(g7
S'W\xc3D\xb3\x0bp5@'
tRp927
sg9
(dp928
g11
(lp929
g5
(g7
S'\xacXJ\xc10\xdd\xf7?'
tRp930
ag5
(g7
S'\xe0\x03\xab\x8bq\x86\xf6?'
tRp931
ag5
(g7
S'\xe0\xf2\x99z`u\xf1?'
tRp932
ag5
(g7
S'\xe7h\x06\xad_\xdd\x0c@'
tRp933
ag5
(g7
S'\x00\x00\x00\x00\x00\x00\x00\x00'
tRp934
asg17
(lp935
g5
(g6
(S'S13'
I0
I1
tRp936
=======
tRp869
asg25
(lp870
F7.9333333333333336
aF8.5333333333333332
aF9.2333333333333343
asg27
(lp871
F27.350000000000005
aF26.983333333333334
aF28.200000000000003
asg29
(lp872
I5
aI3
aI3
asg31
(lp873
g8
(g10
S'>\xadX\x10\xf5]\x02@'
tRp874
ag8
(g10
S'\xde\x03\x85\x98\xef\x8c\x1b@'
tRp875
ag862
assg79
(dp876
g6
(lp877
sg15
(lp878
sg25
(lp879
sg27
(lp880
sg29
(lp881
sg31
(lp882
sssS'DeAndre Jordan'
p883
(dp884
g4
(dp885
g6
(lp886
g8
(g10
S'X\xd7*\x1b\x8e\x98\n@'
tRp887
ag8
(g10
S'\xe0\x03\xab\x8bq\x86\xf6?'
tRp888
ag8
(g10
S'\xe0\xf2\x99z`u\xf1?'
tRp889
ag8
(g10
S'\x88Is\xeb$*\x1e@'
tRp890
ag8
(g10
S'\x00\x00\x00\x00\x00\x00\x00\x00'
tRp891
asg15
(lp892
g8
(g9
(S'S13'
I0
I1
tRp893
>>>>>>> 1b59cb2362bd8878d0b6ae118685f40a38747f0f
(I3
S'|'
NNNI13
I1
I0
tbS'="0021600017"'
<<<<<<< HEAD
tRp937
ag5
(g6
(S'S13'
I0
I1
tRp938
=======
tRp894
ag8
(g9
(S'S13'
I0
I1
tRp895
>>>>>>> 1b59cb2362bd8878d0b6ae118685f40a38747f0f
(I3
S'|'
NNNI13
I1
I0
tbS'="0021600496"'
<<<<<<< HEAD
tRp939
ag5
(g6
(S'S13'
I0
I1
tRp940
=======
tRp896
ag8
(g9
(S'S13'
I0
I1
tRp897
>>>>>>> 1b59cb2362bd8878d0b6ae118685f40a38747f0f
(I3
S'|'
NNNI13
I1
I0
tbS'="0021600519"'
<<<<<<< HEAD
tRp941
ag5
(g6
(S'S13'
I0
I1
tRp942
=======
tRp898
ag8
(g9
(S'S13'
I0
I1
tRp899
>>>>>>> 1b59cb2362bd8878d0b6ae118685f40a38747f0f
(I3
S'|'
NNNI13
I1
I0
tbS'="0021601210"'
<<<<<<< HEAD
tRp943
ag5
(g6
(S'S13'
I0
I1
tRp944
=======
tRp900
ag8
(g9
(S'S13'
I0
I1
tRp901
>>>>>>> 1b59cb2362bd8878d0b6ae118685f40a38747f0f
(I3
S'|'
NNNI13
I1
I0
tbS'="0041600175"'
<<<<<<< HEAD
tRp945
asg27
(lp946
=======
tRp902
asg25
(lp903
>>>>>>> 1b59cb2362bd8878d0b6ae118685f40a38747f0f
F16.883333333333336
aF13.933333333333332
aF16.549999999999997
aF14.099999999999998
aF20.733333333333334
<<<<<<< HEAD
asg29
(lp947
=======
asg27
(lp904
>>>>>>> 1b59cb2362bd8878d0b6ae118685f40a38747f0f
F28.199999999999996
aF30.116666666666671
aF30.433333333333334
aF23.983333333333331
aF42.116666666666667
<<<<<<< HEAD
asg31
(lp948
=======
asg29
(lp905
>>>>>>> 1b59cb2362bd8878d0b6ae118685f40a38747f0f
I5
aI3
aI3
aI4
aI4
<<<<<<< HEAD
asg33
(lp949
g5
(g7
S'zpc\x9a\x15-\xcd?'
tRp950
ag931
ag932
ag5
(g7
S'\xef\xef\x98\xfc\xfcQ\xf2?'
tRp951
ag934
assg38
g5
(g7
S'\xe5\x1ar\xd30LA@'
tRp952
sg40
(dp953
g11
(lp954
g5
(g7
S'\xe7h\x06\xad_\xdd\x0c@'
tRp955
ag5
(g7
S'\x18\xa4\xf7\xe7Ze\t@'
tRp956
ag5
(g7
S'\xacXJ\xc10\xdd\xf7?'
tRp957
ag5
(g7
S'\x90\x1bo_\xd2\xdc\x06@'
tRp958
ag5
(g7
S'h\xf9L=\xb0\xba\n@'
tRp959
ag5
(g7
S'\x00\x00\x00\x00\x00\x00\x00\x00'
tRp960
ag5
(g7
S'\x00\x00\x00\x00\x00\x00\x00\x00'
tRp961
asg17
(lp962
g5
(g6
(S'S13'
I0
I1
tRp963
=======
asg31
(lp906
g8
(g10
S'\x8b\xbfG|p\x14\xfa?'
tRp907
ag888
ag889
ag8
(g10
S'\x8b\xbfG|p\x14\n@'
tRp908
ag891
assg37
(dp909
g6
(lp910
g8
(g10
S'~`u1\xce\xd0 @'
tRp911
ag8
(g10
S'\x18\xa4\xf7\xe7Ze\t@'
tRp912
ag8
(g10
S'\xa8k\x95\rGL\x11@'
tRp913
ag8
(g10
S'\x90\x1bo_\xd2\xdc\x06@'
tRp914
ag8
(g10
S'h\xf9L=\xb0\xba\n@'
tRp915
ag8
(g10
S'\x00\x00\x00\x00\x00\x00\x00\x00'
tRp916
ag8
(g10
S'\x00\x00\x00\x00\x00\x00\x00\x00'
tRp917
asg15
(lp918
g8
(g9
(S'S13'
I0
I1
tRp919
>>>>>>> 1b59cb2362bd8878d0b6ae118685f40a38747f0f
(I3
S'|'
NNNI13
I1
I0
tbS'="0021600355"'
<<<<<<< HEAD
tRp964
ag5
(g6
(S'S13'
I0
I1
tRp965
=======
tRp920
ag8
(g9
(S'S13'
I0
I1
tRp921
>>>>>>> 1b59cb2362bd8878d0b6ae118685f40a38747f0f
(I3
S'|'
NNNI13
I1
I0
tbS'="0021600406"'
<<<<<<< HEAD
tRp966
ag5
(g6
(S'S13'
I0
I1
tRp967
=======
tRp922
ag8
(g9
(S'S13'
I0
I1
tRp923
>>>>>>> 1b59cb2362bd8878d0b6ae118685f40a38747f0f
(I3
S'|'
NNNI13
I1
I0
tbS'="0021600658"'
<<<<<<< HEAD
tRp968
ag5
(g6
(S'S13'
I0
I1
tRp969
=======
tRp924
ag8
(g9
(S'S13'
I0
I1
tRp925
>>>>>>> 1b59cb2362bd8878d0b6ae118685f40a38747f0f
(I3
S'|'
NNNI13
I1
I0
tbS'="0021600675"'
<<<<<<< HEAD
tRp970
ag5
(g6
(S'S13'
I0
I1
tRp971
=======
tRp926
ag8
(g9
(S'S13'
I0
I1
tRp927
>>>>>>> 1b59cb2362bd8878d0b6ae118685f40a38747f0f
(I3
S'|'
NNNI13
I1
I0
tbS'="0021600808"'
<<<<<<< HEAD
tRp972
ag5
(g6
(S'S13'
I0
I1
tRp973
=======
tRp928
ag8
(g9
(S'S13'
I0
I1
tRp929
>>>>>>> 1b59cb2362bd8878d0b6ae118685f40a38747f0f
(I3
S'|'
NNNI13
I1
I0
tbS'="0021600912"'
<<<<<<< HEAD
tRp974
ag5
(g6
(S'S13'
I0
I1
tRp975
=======
tRp930
ag8
(g9
(S'S13'
I0
I1
tRp931
>>>>>>> 1b59cb2362bd8878d0b6ae118685f40a38747f0f
(I3
S'|'
NNNI13
I1
I0
tbS'="0041600176"'
<<<<<<< HEAD
tRp976
asg27
(lp977
=======
tRp932
asg25
(lp933
>>>>>>> 1b59cb2362bd8878d0b6ae118685f40a38747f0f
F8.7166666666666668
aF10.183333333333334
aF9.9333333333333336
aF8.1833333333333336
aF7.4500000000000002
aF9.4666666666666668
aF9.3833333333333329
<<<<<<< HEAD
asg29
(lp978
=======
asg27
(lp934
>>>>>>> 1b59cb2362bd8878d0b6ae118685f40a38747f0f
F23.116666666666667
aF28.350000000000001
aF27.199999999999999
aF28.666666666666668
aF28.183333333333337
aF32.116666666666667
aF36.849999999999994
<<<<<<< HEAD
asg31
(lp979
=======
asg29
(lp935
>>>>>>> 1b59cb2362bd8878d0b6ae118685f40a38747f0f
I4
aI2
aI5
aI3
aI3
aI4
aI5
<<<<<<< HEAD
asg33
(lp980
g5
(g7
S'\xef\xef\x98\xfc\xfcQ\xf2?'
tRp981
ag956
ag5
(g7
S'zpc\x9a\x15-\xcd?'
tRp982
ag958
ag959
ag960
ag961
assg82
(dp983
g11
(lp984
g5
(g7
S'\x80\x85\xbe\xc3\xf2\x99\xca?'
tRp985
ag5
(g7
S'\xacXJ\xc10\xdd\xf7?'
tRp986
ag5
(g7
S'\xe7h\x06\xad_\xdd\x0c@'
tRp987
ag5
(g7
S'\xe7h\x06\xad_\xdd\x0c@'
tRp988
ag5
(g7
S'\xe7h\x06\xad_\xdd\x0c@'
tRp989
aI0
asg17
(lp990
g5
(g6
(S'S13'
I0
I1
tRp991
=======
asg31
(lp936
g8
(g10
S'\x8b\xbfG|p\x14\n@'
tRp937
ag912
ag8
(g10
S'\x8b\xbfG|p\x14\xfa?'
tRp938
ag914
ag915
ag916
ag917
assg79
(dp939
g6
(lp940
g8
(g10
S'\x80\x85\xbe\xc3\xf2\x99\xca?'
tRp941
ag8
(g10
S'X\xe8;,\x9f\xa9\x0f@'
tRp942
ag8
(g10
S'\xe4\xc6\xdb\x974\xb7!@'
tRp943
ag8
(g10
S'\xe2\xc6\xdb\x9747 @'
tRp944
ag8
(g10
S'\xb8|\xa6\x1eX]\x17@'
tRp945
aI0
asg15
(lp946
g8
(g9
(S'S13'
I0
I1
tRp947
>>>>>>> 1b59cb2362bd8878d0b6ae118685f40a38747f0f
(I3
S'|'
NNNI13
I1
I0
tbS'="0021600045"'
<<<<<<< HEAD
tRp992
ag5
(g6
(S'S13'
I0
I1
tRp993
=======
tRp948
ag8
(g9
(S'S13'
I0
I1
tRp949
>>>>>>> 1b59cb2362bd8878d0b6ae118685f40a38747f0f
(I3
S'|'
NNNI13
I1
I0
tbS'="0021600183"'
<<<<<<< HEAD
tRp994
ag5
(g6
(S'S13'
I0
I1
tRp995
=======
tRp950
ag8
(g9
(S'S13'
I0
I1
tRp951
>>>>>>> 1b59cb2362bd8878d0b6ae118685f40a38747f0f
(I3
S'|'
NNNI13
I1
I0
tbS'="0021600739"'
<<<<<<< HEAD
tRp996
ag5
(g6
(S'S13'
I0
I1
tRp997
=======
tRp952
ag8
(g9
(S'S13'
I0
I1
tRp953
>>>>>>> 1b59cb2362bd8878d0b6ae118685f40a38747f0f
(I3
S'|'
NNNI13
I1
I0
tbS'="0021600791"'
<<<<<<< HEAD
tRp998
ag5
(g6
(S'S13'
I0
I1
tRp999
=======
tRp954
ag8
(g9
(S'S13'
I0
I1
tRp955
>>>>>>> 1b59cb2362bd8878d0b6ae118685f40a38747f0f
(I3
S'|'
NNNI13
I1
I0
tbS'="0021601082"'
<<<<<<< HEAD
tRp1000
ag5
(g6
(S'S13'
I0
I1
tRp1001
=======
tRp956
ag8
(g9
(S'S13'
I0
I1
tRp957
>>>>>>> 1b59cb2362bd8878d0b6ae118685f40a38747f0f
(I3
S'|'
NNNI13
I1
I0
tbS'="0041600172"'
<<<<<<< HEAD
tRp1002
asg27
(lp1003
=======
tRp958
asg25
(lp959
>>>>>>> 1b59cb2362bd8878d0b6ae118685f40a38747f0f
F27.050000000000004
aF27.56666666666667
aF22.666666666666671
aF23.416666666666671
aF25.683333333333337
aF27.966666666666669
<<<<<<< HEAD
asg29
(lp1004
=======
asg27
(lp960
>>>>>>> 1b59cb2362bd8878d0b6ae118685f40a38747f0f
F31.31666666666667
aF27.56666666666667
aF22.666666666666668
aF23.416666666666671
aF25.683333333333334
aF34.5
<<<<<<< HEAD
asg31
(lp1005
=======
asg29
(lp961
>>>>>>> 1b59cb2362bd8878d0b6ae118685f40a38747f0f
I5
aI5
aI4
aI4
aI4
aI6
<<<<<<< HEAD
asg33
(lp1006
g985
ag5
(g7
S'zpc\x9a\x15-\xcd?'
tRp1007
ag5
(g7
S'\xef\xef\x98\xfc\xfcQ\xf2?'
tRp1008
ag5
(g7
S'\xef\xef\x98\xfc\xfcQ\xf2?'
tRp1009
ag5
(g7
S'\xef\xef\x98\xfc\xfcQ\xf2?'
tRp1010
aI0
asssS'Kyle Lowry'
p1011
(dp1012
g4
g5
(g7
S'\x02\xceq\x98\xd4o$@'
tRp1013
sg9
(dp1014
g11
(lp1015
g5
(g7
S'\xa6\xde`S\xb2x\x0c@'
tRp1016
ag5
(g7
S'\xc0\xcc\xcc\xcc\xcc\xcc\n@'
tRp1017
asg17
(lp1018
g5
(g6
(S'S13'
I0
I1
tRp1019
=======
asg31
(lp962
g941
ag8
(g10
S'\x8b\xbfG|p\x14\xfa?'
tRp963
ag8
(g10
S'\x8b\xbfG|p\x14\n@'
tRp964
ag8
(g10
S'\x8b\xbfG|p\x14\n@'
tRp965
ag8
(g10
S'\x8b\xbfG|p\x14\n@'
tRp966
aI0
asssS'Kyle Lowry'
p967
(dp968
g4
(dp969
g6
(lp970
g8
(g10
S'033333+@'
tRp971
ag8
(g10
S'\xc0\xcc\xcc\xcc\xcc\xcc\n@'
tRp972
asg15
(lp973
g8
(g9
(S'S13'
I0
I1
tRp974
>>>>>>> 1b59cb2362bd8878d0b6ae118685f40a38747f0f
(I3
S'|'
NNNI13
I1
I0
tbS'="0021600042"'
<<<<<<< HEAD
tRp1020
ag5
(g6
(S'S13'
I0
I1
tRp1021
=======
tRp975
ag8
(g9
(S'S13'
I0
I1
tRp976
>>>>>>> 1b59cb2362bd8878d0b6ae118685f40a38747f0f
(I3
S'|'
NNNI13
I1
I0
tbS'="0041600121"'
<<<<<<< HEAD
tRp1022
asg27
(lp1023
F14.733333333333334
aF14.383333333333336
asg29
(lp1024
F23.616666666666667
aF33.866666666666667
asg31
(lp1025
I4
aI4
asg33
(lp1026
g5
(g7
S')\xe9\x0c\xbcl\x10\xf2?'
tRp1027
ag5
(g7
S')\xe9\x0c\xbcl\x10\xf2?'
tRp1028
assg38
g5
(g7
S'\x17<}\xf6%\x89&@'
tRp1029
sg40
(dp1030
g11
(lp1031
g5
(g7
S'\xa6\xde`S\xb2x\x0c@'
tRp1032
ag5
(g7
S'@\x99\x99\x99\x99\x99\xe9?'
tRp1033
asg17
(lp1034
g5
(g6
(S'S13'
I0
I1
tRp1035
=======
tRp977
asg25
(lp978
F14.733333333333334
aF14.383333333333336
asg27
(lp979
F23.616666666666667
aF33.866666666666667
asg29
(lp980
I4
aI4
asg31
(lp981
g8
(g10
S'\xbb%\x90\x1d\xc2\x15\r@'
tRp982
ag972
assg37
(dp983
g6
(lp984
g8
(g10
S'\x0e\x11\x11\x11\x11\x91*@'
tRp985
ag8
(g10
S'@\x99\x99\x99\x99\x99\xe9?'
tRp986
asg15
(lp987
g8
(g9
(S'S13'
I0
I1
tRp988
>>>>>>> 1b59cb2362bd8878d0b6ae118685f40a38747f0f
(I3
S'|'
NNNI13
I1
I0
tbS'="0021601180"'
<<<<<<< HEAD
tRp1036
ag5
(g6
(S'S13'
I0
I1
tRp1037
=======
tRp989
ag8
(g9
(S'S13'
I0
I1
tRp990
>>>>>>> 1b59cb2362bd8878d0b6ae118685f40a38747f0f
(I3
S'|'
NNNI13
I1
I0
tbS'="0041600125"'
<<<<<<< HEAD
tRp1038
asg27
(lp1039
F7.416666666666667
aF8.8833333333333329
asg29
(lp1040
F23.933333333333334
aF36.416666666666671
asg31
(lp1041
I4
aI4
asg33
(lp1042
g5
(g7
S')\xe9\x0c\xbcl\x10\xf2?'
tRp1043
ag1033
assg82
(dp1044
g11
(lp1045
sg17
(lp1046
sg27
(lp1047
sg29
(lp1048
sg31
(lp1049
sg33
(lp1050
sssS'Anthony Davis'
p1051
(dp1052
g4
g5
(g7
S'\x17d\xe6\xebr\xbb>@'
tRp1053
sg9
(dp1054
g11
(lp1055
g5
(g7
S'\x8fEs\xaf\x94\xae\x11@'
tRp1056
ag5
(g7
S'\xa8\x9c@\xbd\x026\xfd?'
tRp1057
asg17
(lp1058
g5
(g6
(S'S13'
I0
I1
tRp1059
=======
tRp991
asg25
(lp992
F7.416666666666667
aF8.8833333333333329
asg27
(lp993
F23.933333333333334
aF36.416666666666671
asg29
(lp994
I4
aI4
asg31
(lp995
g8
(g10
S'\xbb%\x90\x1d\xc2\x15\r@'
tRp996
ag986
assg79
(dp997
g6
(lp998
sg15
(lp999
sg25
(lp1000
sg27
(lp1001
sg29
(lp1002
sg31
(lp1003
sssS'Anthony Davis'
p1004
(dp1005
g4
(dp1006
g6
(lp1007
g8
(g10
S"T\xee\xab0'\xba\x19@"
tRp1008
ag8
(g10
S'\x1a\xe6D\x87\x02L$@'
tRp1009
asg15
(lp1010
g8
(g9
(S'S13'
I0
I1
tRp1011
>>>>>>> 1b59cb2362bd8878d0b6ae118685f40a38747f0f
(I3
S'|'
NNNI13
I1
I0
tbS'="0021600412"'
<<<<<<< HEAD
tRp1060
ag5
(g6
(S'S13'
I0
I1
tRp1061
=======
tRp1012
ag8
(g9
(S'S13'
I0
I1
tRp1013
>>>>>>> 1b59cb2362bd8878d0b6ae118685f40a38747f0f
(I3
S'|'
NNNI13
I1
I0
tbS'="0021600433"'
<<<<<<< HEAD
tRp1062
asg27
(lp1063
F18.533333333333335
aF16.049999999999997
asg29
(lp1064
F29.683333333333334
aF25.966666666666665
asg31
(lp1065
I4
aI5
asg33
(lp1066
g5
(g7
S'4\x86\x07\xdaCn\xf6?'
tRp1067
ag5
(g7
S'\x05\xcd\xc8\x7f\xe2\xc4\xd1?'
tRp1068
assg38
g5
(g7
S'\x88*\xf82\xfa\xc09@'
tRp1069
sg40
(dp1070
g11
(lp1071
g5
(g7
S'\x8fEs\xaf\x94\xae\x11@'
tRp1072
ag5
(g7
S'\xa8\x9c@\xbd\x026\xfd?'
tRp1073
asg17
(lp1074
g5
(g6
(S'S13'
I0
I1
tRp1075
=======
tRp1014
asg25
(lp1015
F18.533333333333335
aF16.049999999999997
asg27
(lp1016
F29.683333333333334
aF25.966666666666665
asg29
(lp1017
I4
aI5
asg31
(lp1018
g8
(g10
S'\xe3t\xe7\xb5f\t\x14@'
tRp1019
ag8
(g10
S'\xe3t\xe7\xb5f\t\x04@'
tRp1020
assg37
(dp1021
g6
(lp1022
g8
(g10
S'\xdcv4\xb9\xafB\x17@'
tRp1023
ag8
(g10
S'L\x19x\xba5\x7f&@'
tRp1024
asg15
(lp1025
g8
(g9
(S'S13'
I0
I1
tRp1026
>>>>>>> 1b59cb2362bd8878d0b6ae118685f40a38747f0f
(I3
S'|'
NNNI13
I1
I0
tbS'="0021600481"'
<<<<<<< HEAD
tRp1076
ag5
(g6
(S'S13'
I0
I1
tRp1077
=======
tRp1027
ag8
(g9
(S'S13'
I0
I1
tRp1028
>>>>>>> 1b59cb2362bd8878d0b6ae118685f40a38747f0f
(I3
S'|'
NNNI13
I1
I0
tbS'="0021600539"'
<<<<<<< HEAD
tRp1078
asg27
(lp1079
F10.1
aF8.6666666666666661
asg29
(lp1080
F30.300000000000001
aF24.866666666666667
asg31
(lp1081
I4
aI5
asg33
(lp1082
g5
(g7
S'4\x86\x07\xdaCn\xf6?'
tRp1083
ag5
(g7
S'\x05\xcd\xc8\x7f\xe2\xc4\xd1?'
tRp1084
assg82
(dp1085
g11
(lp1086
g5
(g7
S'\x8fEs\xaf\x94\xae\x11@'
tRp1087
ag5
(g7
S'\x00\x00\x00\x00\x00\x00\x00\x00'
tRp1088
ag5
(g7
S'\x8fEs\xaf\x94\xae\x11@'
tRp1089
ag5
(g7
S'\x8fEs\xaf\x94\xae\x11@'
tRp1090
asg17
(lp1091
g5
(g6
(S'S13'
I0
I1
tRp1092
=======
tRp1029
asg25
(lp1030
F10.1
aF8.6666666666666661
asg27
(lp1031
F30.300000000000001
aF24.866666666666667
asg29
(lp1032
I4
aI5
asg31
(lp1033
g8
(g10
S'\xe3t\xe7\xb5f\t\x14@'
tRp1034
ag8
(g10
S'\xe3t\xe7\xb5f\t\x04@'
tRp1035
assg79
(dp1036
g6
(lp1037
g8
(g10
S'h\xff\xbcA8\xcb\x15@'
tRp1038
ag8
(g10
S'\x00\x00\x00\x00\x00\x00\x00\x00'
tRp1039
ag8
(g10
S'\xf8\xc3"e\xe0)"@'
tRp1040
ag8
(g10
S"\xb2\x7f\xde \x9ce'@"
tRp1041
asg15
(lp1042
g8
(g9
(S'S13'
I0
I1
tRp1043
>>>>>>> 1b59cb2362bd8878d0b6ae118685f40a38747f0f
(I3
S'|'
NNNI13
I1
I0
tbS'="0021600060"'
<<<<<<< HEAD
tRp1093
ag5
(g6
(S'S13'
I0
I1
tRp1094
=======
tRp1044
ag8
(g9
(S'S13'
I0
I1
tRp1045
>>>>>>> 1b59cb2362bd8878d0b6ae118685f40a38747f0f
(I3
S'|'
NNNI13
I1
I0
tbS'="0021600359"'
<<<<<<< HEAD
tRp1095
ag5
(g6
(S'S13'
I0
I1
tRp1096
=======
tRp1046
ag8
(g9
(S'S13'
I0
I1
tRp1047
>>>>>>> 1b59cb2362bd8878d0b6ae118685f40a38747f0f
(I3
S'|'
NNNI13
I1
I0
tbS'="0021600645"'
<<<<<<< HEAD
tRp1097
ag5
(g6
(S'S13'
I0
I1
tRp1098
=======
tRp1048
ag8
(g9
(S'S13'
I0
I1
tRp1049
>>>>>>> 1b59cb2362bd8878d0b6ae118685f40a38747f0f
(I3
S'|'
NNNI13
I1
I0
tbS'="0021600880"'
<<<<<<< HEAD
tRp1099
asg27
(lp1100
=======
tRp1050
asg25
(lp1051
>>>>>>> 1b59cb2362bd8878d0b6ae118685f40a38747f0f
F25.18333333333333
aF27.199999999999999
aF27.033333333333331
aF24.416666666666671
<<<<<<< HEAD
asg29
(lp1101
=======
asg27
(lp1052
>>>>>>> 1b59cb2362bd8878d0b6ae118685f40a38747f0f
F30.666666666666664
aF39.200000000000003
aF27.033333333333331
aF24.416666666666668
<<<<<<< HEAD
asg31
(lp1102
=======
asg29
(lp1053
>>>>>>> 1b59cb2362bd8878d0b6ae118685f40a38747f0f
I4
aI4
aI4
aI4
<<<<<<< HEAD
asg33
(lp1103
g5
(g7
S'4\x86\x07\xdaCn\xf6?'
tRp1104
ag1088
ag5
(g7
S'4\x86\x07\xdaCn\xf6?'
tRp1105
ag5
(g7
S'4\x86\x07\xdaCn\xf6?'
tRp1106
=======
asg31
(lp1054
g8
(g10
S'\xe3t\xe7\xb5f\t\x14@'
tRp1055
ag1039
ag8
(g10
S'\xe3t\xe7\xb5f\t\x14@'
tRp1056
ag8
(g10
S'\xe3t\xe7\xb5f\t\x14@'
tRp1057
>>>>>>> 1b59cb2362bd8878d0b6ae118685f40a38747f0f
asss.