(dp1
S'Hassan Whiteside'
p2
(dp3
S'6_4'
p4
(dp5
S'fouls'
p6
I3
sS'subs'
p7
I2
ssS'6_5'
p8
(dp9
g6
I1
sg7
I1
ssS'6_2'
p10
(dp11
g6
I3
sg7
I1
ssS'6_3'
p12
(dp13
g6
I3
sg7
I1
ssS'7_2'
p14
(dp15
g6
I4
sg7
I0
ssS'1_2'
p16
(dp17
g6
I10
sg7
I10
ssS'1_1'
p18
(dp19
g6
I23
sg7
I7
ssS'7_5'
p20
(dp21
g6
I8
sg7
I4
ssS'7_4'
p22
(dp23
g6
I15
sg7
I0
ssS'7_6'
p24
(dp25
g6
I2
sg7
I2
ssS'7_1'
p26
(dp27
g6
I2
sg7
I1
ssS'7_3'
p28
(dp29
g6
I14
sg7
I2
ssS'0_1'
p30
(dp31
g6
I18
sg7
I1
ssS'3_1'
p32
(dp33
g6
I17
sg7
I0
ssS'3_3'
p34
(dp35
g6
I6
sg7
I6
ssS'3_2'
p36
(dp37
g6
I18
sg7
I3
ssS'2_1'
p38
(dp39
g6
I5
sg7
I0
ssS'2_2'
p40
(dp41
g6
I3
sg7
I1
ssS'2_3'
p42
(dp43
g6
I1
sg7
I1
ssS'5_3'
p44
(dp45
g6
I13
sg7
I5
ssS'5_2'
p46
(dp47
g6
I9
sg7
I1
ssS'5_1'
p48
(dp49
g6
I3
sg7
I0
ssS'5_4'
p50
(dp51
g6
I4
sg7
I4
ssS'4_2'
p52
(dp53
g6
I16
sg7
I1
ssS'4_3'
p54
(dp55
g6
I11
sg7
I2
ssS'4_1'
p56
(dp57
g6
I5
sg7
I0
ssS'4_4'
p58
(dp59
g6
I5
sg7
I4
ssS'0_2'
p60
(dp61
g6
I1
sg7
I1
sssS'Nikola Jokic'
p62
(dp63
S'6_4'
p64
(dp65
g6
I2
sg7
I0
ssS'6_5'
p66
(dp67
g6
I4
sg7
I3
ssS'6_1'
p68
(dp69
g6
I1
sg7
I0
ssS'6_2'
p70
(dp71
g6
I3
sg7
I1
ssS'6_3'
p72
(dp73
g6
I7
sg7
I1
ssS'1_2'
p74
(dp75
g6
I8
sg7
I8
ssS'1_1'
p76
(dp77
g6
I20
sg7
I7
ssS'7_5'
p78
(dp79
g6
I7
sg7
I3
ssS'7_4'
p80
(dp81
g6
I8
sg7
I0
ssS'7_6'
p82
(dp83
g6
I1
sg7
I1
ssS'0_2'
p84
(dp85
g6
I3
sg7
I3
ssS'7_3'
p86
(dp87
g6
I8
sg7
I0
ssS'7_2'
p88
(dp89
g6
I10
sg7
I4
ssS'3_1'
p90
(dp91
g6
I15
sg7
I2
ssS'3_3'
p92
(dp93
g6
I10
sg7
I10
ssS'3_2'
p94
(dp95
g6
I19
sg7
I8
ssS'0_1'
p96
(dp97
g6
I15
sg7
I3
ssS'2_1'
p98
(dp99
g6
I8
sg7
I2
ssS'2_2'
p100
(dp101
g6
I3
sg7
I0
ssS'5_3'
p102
(dp103
g6
I9
sg7
I6
ssS'5_2'
p104
(dp105
g6
I6
sg7
I2
ssS'5_1'
p106
(dp107
g6
I9
sg7
I0
ssS'5_4'
p108
(dp109
g6
I6
sg7
I6
ssS'4_2'
p110
(dp111
g6
I9
sg7
I0
ssS'4_3'
p112
(dp113
g6
I11
sg7
I1
ssS'7_1'
p114
(dp115
g6
I2
sg7
I0
ssS'4_1'
p116
(dp117
g6
I2
sg7
I0
ssS'4_4'
p118
(dp119
g6
I6
sg7
I5
sssS'Damian Lillard'
p120
(dp121
S'6_4'
p122
(dp123
g6
I2
sg7
I0
ssS'6_1'
p124
(dp125
g6
I1
sg7
I1
ssS'6_2'
p126
(dp127
g6
I1
sg7
I0
ssS'6_3'
p128
(dp129
g6
I3
sg7
I2
ssS'1_2'
p130
(dp131
g6
I3
sg7
I2
ssS'1_1'
p132
(dp133
g6
I16
sg7
I3
ssS'7_5'
p134
(dp135
g6
I5
sg7
I2
ssS'7_4'
p136
(dp137
g6
I8
sg7
I1
ssS'7_6'
p138
(dp139
g6
I1
sg7
I1
ssS'0_2'
p140
(dp141
g6
I1
sg7
I0
ssS'7_3'
p142
(dp143
g6
I12
sg7
I2
ssS'7_2'
p144
(dp145
g6
I9
sg7
I3
ssS'3_1'
p146
(dp147
g6
I15
sg7
I0
ssS'3_3'
p148
(dp149
g6
I3
sg7
I3
ssS'3_2'
p150
(dp151
g6
I10
sg7
I0
ssS'0_1'
p152
(dp153
g6
I14
sg7
I0
ssS'2_1'
p154
(dp155
g6
I1
sg7
I0
ssS'2_2'
p156
(dp157
g6
I1
sg7
I0
ssS'2_3'
p158
(dp159
g6
I1
sg7
I1
ssS'5_3'
p160
(dp161
g6
I5
sg7
I2
ssS'5_2'
p162
(dp163
g6
I13
sg7
I4
ssS'5_1'
p164
(dp165
g6
I5
sg7
I0
ssS'4_2'
p166
(dp167
g6
I9
sg7
I0
ssS'4_3'
p168
(dp169
g6
I6
sg7
I0
ssS'7_1'
p170
(dp171
g6
I9
sg7
I1
ssS'4_1'
p172
(dp173
g6
I7
sg7
I0
ssS'4_4'
p174
(dp175
g6
I1
sg7
I0
sssS'Gordon Hayward'
p176
(dp177
S'3_1'
p178
(dp179
g6
I13
sg7
I1
ssS'3_3'
p180
(dp181
g6
I1
sg7
I1
ssS'3_2'
p182
(dp183
g6
I10
sg7
I2
ssS'6_1'
p184
(dp185
g6
I1
sg7
I0
ssS'6_2'
p186
(dp187
g6
I4
sg7
I0
ssS'6_3'
p188
(dp189
g6
I3
sg7
I0
ssS'0_1'
p190
(dp191
g6
I15
sg7
I0
ssS'2_1'
p192
(dp193
g6
I3
sg7
I0
ssS'2_2'
p194
(dp195
g6
I2
sg7
I0
ssS'5_3'
p196
(dp197
g6
I3
sg7
I1
ssS'5_2'
p198
(dp199
g6
I8
sg7
I2
ssS'5_1'
p200
(dp201
g6
I8
sg7
I1
ssS'1_2'
p202
(dp203
g6
I2
sg7
I1
ssS'1_1'
p204
(dp205
g6
I14
sg7
I2
ssS'7_4'
p206
(dp207
g6
I4
sg7
I0
ssS'4_2'
p208
(dp209
g6
I5
sg7
I0
ssS'4_3'
p210
(dp211
g6
I2
sg7
I0
ssS'4_1'
p212
(dp213
g6
I14
sg7
I0
ssS'7_1'
p214
(dp215
g6
I5
sg7
I0
ssS'7_3'
p216
(dp217
g6
I9
sg7
I0
ssS'7_2'
p218
(dp219
g6
I13
sg7
I1
sssS'Isaiah Thomas'
p220
(dp221
S'6_4'
p222
(dp223
g6
I2
sg7
I0
ssS'6_1'
p224
(dp225
g6
I6
sg7
I0
ssS'6_2'
p226
(dp227
g6
I4
sg7
I0
ssS'6_3'
p228
(dp229
g6
I2
sg7
I0
ssS'1_2'
p230
(dp231
g6
I2
sg7
I1
ssS'1_1'
p232
(dp233
g6
I14
sg7
I2
ssS'7_5'
p234
(dp235
g6
I2
sg7
I1
ssS'7_4'
p236
(dp237
g6
I10
sg7
I3
ssS'7_1'
p238
(dp239
g6
I4
sg7
I2
ssS'7_3'
p240
(dp241
g6
I20
sg7
I7
ssS'7_2'
p242
(dp243
g6
I17
sg7
I1
ssS'3_1'
p244
(dp245
g6
I16
sg7
I2
ssS'3_3'
p246
(dp247
g6
I2
sg7
I2
ssS'3_2'
p248
(dp249
g6
I11
sg7
I1
ssS'3_4'
p250
(dp251
g6
I1
sg7
I1
ssS'0_1'
p252
(dp253
g6
I17
sg7
I0
ssS'2_1'
p254
(dp255
g6
I6
sg7
I0
ssS'2_2'
p256
(dp257
g6
I2
sg7
I0
ssS'5_3'
p258
(dp259
g6
I12
sg7
I2
ssS'5_2'
p260
(dp261
g6
I11
sg7
I1
ssS'5_1'
p262
(dp263
g6
I11
sg7
I2
ssS'5_5'
p264
(dp265
g6
I1
sg7
I1
ssS'5_4'
p266
(dp267
g6
I2
sg7
I2
ssS'4_2'
p268
(dp269
g6
I14
sg7
I0
ssS'4_3'
p270
(dp271
g6
I5
sg7
I0
ssS'4_1'
p272
(dp273
g6
I9
sg7
I0
ssS'4_4'
p274
(dp275
g6
I1
sg7
I1
ssS'0_2'
p276
(dp277
g6
I2
sg7
I0
sssS'Kevin Durant'
p278
(dp279
S'6_4'
p280
(dp281
g6
I5
sg7
I0
ssS'6_5'
p282
(dp283
g6
I1
sg7
I1
ssS'6_1'
p284
(dp285
g6
I2
sg7
I0
ssS'6_3'
p286
(dp287
g6
I6
sg7
I1
ssS'7_2'
p288
(dp289
g6
I10
sg7
I1
ssS'1_2'
p290
(dp291
g6
I3
sg7
I3
ssS'1_1'
p292
(dp293
g6
I13
sg7
I4
ssS'7_5'
p294
(dp295
g6
I2
sg7
I1
ssS'7_4'
p296
(dp297
g6
I1
sg7
I0
ssS'0_2'
p298
(dp299
g6
I1
sg7
I1
ssS'7_3'
p300
(dp301
g6
I5
sg7
I1
ssS'0_1'
p302
(dp303
g6
I13
sg7
I0
ssS'3_1'
p304
(dp305
g6
I11
sg7
I0
ssS'3_3'
p306
(dp307
g6
I1
sg7
I1
ssS'3_2'
p308
(dp309
g6
I14
sg7
I3
ssS'2_1'
p310
(dp311
g6
I14
sg7
I3
ssS'2_2'
p312
(dp313
g6
I3
sg7
I1
ssS'5_3'
p314
(dp315
g6
I9
sg7
I3
ssS'5_2'
p316
(dp317
g6
I9
sg7
I0
ssS'5_1'
p318
(dp319
g6
I4
sg7
I1
ssS'5_4'
p320
(dp321
g6
I3
sg7
I3
ssS'4_2'
p322
(dp323
g6
I11
sg7
I0
ssS'4_3'
p324
(dp325
g6
I4
sg7
I0
ssS'7_1'
p326
(dp327
g6
I1
sg7
I0
ssS'4_1'
p328
(dp329
g6
I8
sg7
I0
sssS'Kyle Lowry'
p330
(dp331
S'6_4'
p332
(dp333
g6
I9
sg7
I1
ssS'6_5'
p334
(dp335
g6
I1
sg7
I1
ssS'6_1'
p336
(dp337
g6
I2
sg7
I0
ssS'6_2'
p338
(dp339
g6
I8
sg7
I0
ssS'6_3'
p340
(dp341
g6
I8
sg7
I0
ssS'7_2'
p342
(dp343
g6
I8
sg7
I1
ssS'1_2'
p344
(dp345
g6
I2
sg7
I2
ssS'1_1'
p346
(dp347
g6
I12
sg7
I2
ssS'7_5'
p348
(dp349
g6
I6
sg7
I2
ssS'7_4'
p350
(dp351
g6
I13
sg7
I3
ssS'7_6'
p352
(dp353
g6
I1
sg7
I1
ssS'7_1'
p354
(dp355
g6
I1
sg7
I0
ssS'7_3'
p356
(dp357
g6
I8
sg7
I0
ssS'0_1'
p358
(dp359
g6
I13
sg7
I0
ssS'3_1'
p360
(dp361
g6
I12
sg7
I3
ssS'3_3'
p362
(dp363
g6
I2
sg7
I2
ssS'3_2'
p364
(dp365
g6
I12
sg7
I2
ssS'2_1'
p366
(dp367
g6
I13
sg7
I0
ssS'2_2'
p368
(dp369
g6
I7
sg7
I0
ssS'5_3'
p370
(dp371
g6
I16
sg7
I4
ssS'5_2'
p372
(dp373
g6
I10
sg7
I0
ssS'5_1'
p374
(dp375
g6
I4
sg7
I1
ssS'4_2'
p376
(dp377
g6
I8
sg7
I0
ssS'4_3'
p378
(dp379
g6
I8
sg7
I0
ssS'4_1'
p380
(dp381
g6
I8
sg7
I0
ssS'4_4'
p382
(dp383
g6
I2
sg7
I1
sssS'Chris Paul'
p384
(dp385
S'6_4'
p386
(dp387
g6
I3
sg7
I1
ssS'6_5'
p388
(dp389
g6
I2
sg7
I0
ssS'6_1'
p390
(dp391
g6
I1
sg7
I0
ssS'6_2'
p392
(dp393
g6
I2
sg7
I0
ssS'6_3'
p394
(dp395
g6
I3
sg7
I0
ssS'1_2'
p396
(dp397
g6
I3
sg7
I3
ssS'1_1'
p398
(dp399
g6
I19
sg7
I7
ssS'7_5'
p400
(dp401
g6
I1
sg7
I0
ssS'7_4'
p402
(dp403
g6
I12
sg7
I1
ssS'0_2'
p404
(dp405
g6
I1
sg7
I1
ssS'7_3'
p406
(dp407
g6
I10
sg7
I1
ssS'7_2'
p408
(dp409
g6
I10
sg7
I1
ssS'3_1'
p410
(dp411
g6
I17
sg7
I0
ssS'3_3'
p412
(dp413
g6
I3
sg7
I2
ssS'3_2'
p414
(dp415
g6
I11
sg7
I0
ssS'0_1'
p416
(dp417
g6
I13
sg7
I0
ssS'2_1'
p418
(dp419
g6
I2
sg7
I0
ssS'2_2'
p420
(dp421
g6
I1
sg7
I0
ssS'5_3'
p422
(dp423
g6
I5
sg7
I0
ssS'5_2'
p424
(dp425
g6
I14
sg7
I4
ssS'5_1'
p426
(dp427
g6
I5
sg7
I2
ssS'5_4'
p428
(dp429
g6
I3
sg7
I1
ssS'4_2'
p430
(dp431
g6
I10
sg7
I0
ssS'4_3'
p432
(dp433
g6
I9
sg7
I0
ssS'7_1'
p434
(dp435
g6
I2
sg7
I0
ssS'4_1'
p436
(dp437
g6
I7
sg7
I0
ssS'4_4'
p438
(dp439
g6
I1
sg7
I1
sssS'Jimmy Butler'
p440
(dp441
S'6_5'
p442
(dp443
g6
I1
sg7
I0
ssS'6_1'
p444
(dp445
g6
I1
sg7
I0
ssS'6_2'
p446
(dp447
g6
I6
sg7
I0
ssS'6_3'
p448
(dp449
g6
I2
sg7
I0
ssS'1_2'
p450
(dp451
g6
I2
sg7
I2
ssS'1_1'
p452
(dp453
g6
I13
sg7
I1
ssS'7_5'
p454
(dp455
g6
I2
sg7
I0
ssS'7_4'
p456
(dp457
g6
I4
sg7
I1
ssS'7_1'
p458
(dp459
g6
I8
sg7
I0
ssS'7_3'
p460
(dp461
g6
I3
sg7
I0
ssS'7_2'
p462
(dp463
g6
I9
sg7
I0
ssS'3_1'
p464
(dp465
g6
I10
sg7
I0
ssS'3_3'
p466
(dp467
g6
I2
sg7
I1
ssS'3_2'
p468
(dp469
g6
I7
sg7
I0
ssS'0_1'
p470
(dp471
g6
I8
sg7
I0
ssS'2_1'
p472
(dp473
g6
I1
sg7
I0
ssS'2_2'
p474
(dp475
g6
I2
sg7
I1
ssS'2_3'
p476
(dp477
g6
I1
sg7
I0
ssS'5_3'
p478
(dp479
g6
I6
sg7
I1
ssS'5_2'
p480
(dp481
g6
I7
sg7
I0
ssS'5_1'
p482
(dp483
g6
I14
sg7
I0
ssS'5_4'
p484
(dp485
g6
I2
sg7
I1
ssS'4_2'
p486
(dp487
g6
I3
sg7
I0
ssS'4_3'
p488
(dp489
g6
I2
sg7
I0
ssS'4_1'
p490
(dp491
g6
I8
sg7
I0
sssS'LeBron James'
p492
(dp493
S'6_4'
p494
(dp495
g6
I1
sg7
I0
ssS'6_1'
p496
(dp497
g6
I9
sg7
I0
ssS'6_2'
p498
(dp499
g6
I5
sg7
I0
ssS'6_3'
p500
(dp501
g6
I4
sg7
I1
ssS'7_2'
p502
(dp503
g6
I12
sg7
I1
ssS'1_1'
p504
(dp505
g6
I11
sg7
I1
ssS'7_5'
p506
(dp507
g6
I2
sg7
I0
ssS'7_4'
p508
(dp509
g6
I4
sg7
I0
ssS'7_1'
p510
(dp511
g6
I5
sg7
I0
ssS'7_3'
p512
(dp513
g6
I10
sg7
I1
ssS'0_1'
p514
(dp515
g6
I12
sg7
I0
ssS'3_1'
p516
(dp517
g6
I17
sg7
I3
ssS'3_3'
p518
(dp519
g6
I1
sg7
I1
ssS'3_2'
p520
(dp521
g6
I6
sg7
I1
ssS'3_4'
p522
(dp523
g6
I1
sg7
I1
ssS'2_1'
p524
(dp525
g6
I5
sg7
I0
ssS'2_2'
p526
(dp527
g6
I5
sg7
I0
ssS'2_3'
p528
(dp529
g6
I1
sg7
I0
ssS'5_3'
p530
(dp531
g6
I6
sg7
I2
ssS'5_2'
p532
(dp533
g6
I15
sg7
I2
ssS'5_1'
p534
(dp535
g6
I14
sg7
I2
ssS'5_4'
p536
(dp537
g6
I2
sg7
I0
ssS'4_2'
p538
(dp539
g6
I13
sg7
I0
ssS'4_3'
p540
(dp541
g6
I3
sg7
I0
ssS'4_1'
p542
(dp543
g6
I8
sg7
I0
sssS'Stephen Curry'
p544
(dp545
S'6_5'
p546
(dp547
g6
I1
sg7
I1
ssS'6_2'
p548
(dp549
g6
I1
sg7
I0
ssS'1_2'
p550
(dp551
g6
I7
sg7
I6
ssS'1_1'
p552
(dp553
g6
I30
sg7
I4
ssS'7_5'
p554
(dp555
g6
I5
sg7
I1
ssS'7_4'
p556
(dp557
g6
I10
sg7
I1
ssS'0_2'
p558
(dp559
g6
I1
sg7
I0
ssS'7_3'
p560
(dp561
g6
I10
sg7
I1
ssS'7_2'
p562
(dp563
g6
I6
sg7
I0
ssS'3_1'
p564
(dp565
g6
I25
sg7
I0
ssS'3_3'
p566
(dp567
g6
I7
sg7
I6
ssS'3_2'
p568
(dp569
g6
I19
sg7
I2
ssS'0_1'
p570
(dp571
g6
I17
sg7
I0
ssS'7_1'
p572
(dp573
g6
I1
sg7
I0
ssS'2_2'
p574
(dp575
g6
I1
sg7
I0
ssS'2_3'
p576
(dp577
g6
I1
sg7
I0
ssS'5_3'
p578
(dp579
g6
I17
sg7
I3
ssS'5_2'
p580
(dp581
g6
I21
sg7
I0
ssS'5_1'
p582
(dp583
g6
I8
sg7
I1
ssS'5_4'
p584
(dp585
g6
I7
sg7
I3
ssS'4_2'
p586
(dp587
g6
I8
sg7
I0
ssS'4_3'
p588
(dp589
g6
I6
sg7
I0
ssS'4_1'
p590
(dp591
g6
I6
sg7
I0
ssS'4_4'
p592
(dp593
g6
I1
sg7
I1
sssS'Rudy Gobert'
p594
(dp595
S'6_4'
p596
(dp597
g6
I2
sg7
I0
ssS'6_5'
p598
(dp599
g6
I4
sg7
I4
ssS'6_1'
p600
(dp601
g6
I1
sg7
I0
ssS'6_2'
p602
(dp603
g6
I4
sg7
I1
ssS'6_3'
p604
(dp605
g6
I6
sg7
I0
ssS'1_2'
p606
(dp607
g6
I1
sg7
I1
ssS'1_1'
p608
(dp609
g6
I17
sg7
I8
ssS'7_5'
p610
(dp611
g6
I12
sg7
I5
ssS'7_4'
p612
(dp613
g6
I23
sg7
I2
ssS'7_6'
p614
(dp615
g6
I7
sg7
I6
ssS'0_2'
p616
(dp617
g6
I4
sg7
I4
ssS'7_3'
p618
(dp619
g6
I20
sg7
I2
ssS'0_1'
p620
(dp621
g6
I20
sg7
I0
ssS'3_1'
p622
(dp623
g6
I18
sg7
I0
ssS'3_3'
p624
(dp625
g6
I9
sg7
I9
ssS'3_2'
p626
(dp627
g6
I21
sg7
I3
ssS'2_1'
p628
(dp629
g6
I8
sg7
I0
ssS'2_2'
p630
(dp631
g6
I2
sg7
I0
ssS'2_3'
p632
(dp633
g6
I1
sg7
I1
ssS'5_3'
p634
(dp635
g6
I17
sg7
I8
ssS'5_2'
p636
(dp637
g6
I22
sg7
I5
ssS'5_1'
p638
(dp639
g6
I7
sg7
I1
ssS'5_4'
p640
(dp641
g6
I3
sg7
I3
ssS'4_2'
p642
(dp643
g6
I10
sg7
I0
ssS'4_3'
p644
(dp645
g6
I5
sg7
I1
ssS'7_1'
p646
(dp647
g6
I4
sg7
I0
ssS'7_2'
p648
(dp649
g6
I9
sg7
I0
ssS'4_4'
p650
(dp651
g6
I5
sg7
I5
ssS'4_1'
p652
(dp653
g6
I11
sg7
I0
sssS'Kawhi Leonard'
p654
(dp655
S'6_1'
p656
(dp657
g6
I4
sg7
I0
ssS'6_2'
p658
(dp659
g6
I5
sg7
I1
ssS'1_2'
p660
(dp661
g6
I2
sg7
I1
ssS'1_1'
p662
(dp663
g6
I10
sg7
I1
ssS'7_5'
p664
(dp665
g6
I1
sg7
I0
ssS'7_4'
p666
(dp667
g6
I5
sg7
I0
ssS'7_1'
p668
(dp669
g6
I1
sg7
I0
ssS'7_3'
p670
(dp671
g6
I6
sg7
I0
ssS'7_2'
p672
(dp673
g6
I4
sg7
I1
ssS'3_1'
p674
(dp675
g6
I19
sg7
I1
ssS'3_3'
p676
(dp677
g6
I2
sg7
I2
ssS'3_2'
p678
(dp679
g6
I6
sg7
I0
ssS'0_1'
p680
(dp681
g6
I18
sg7
I1
ssS'2_1'
p682
(dp683
g6
I4
sg7
I0
ssS'2_2'
p684
(dp685
g6
I2
sg7
I0
ssS'5_3'
p686
(dp687
g6
I4
sg7
I2
ssS'5_2'
p688
(dp689
g6
I14
sg7
I1
ssS'5_1'
p690
(dp691
g6
I9
sg7
I2
ssS'5_4'
p692
(dp693
g6
I2
sg7
I2
ssS'4_2'
p694
(dp695
g6
I8
sg7
I0
ssS'4_3'
p696
(dp697
g6
I3
sg7
I1
ssS'4_1'
p698
(dp699
g6
I10
sg7
I1
ssS'4_4'
p700
(dp701
g6
I1
sg7
I0
ssS'4_5'
p702
(dp703
g6
I1
sg7
I1
sssS'Karl-Anthony Towns'
p704
(dp705
S'6_4'
p706
(dp707
g6
I2
sg7
I0
ssS'6_5'
p708
(dp709
g6
I1
sg7
I1
ssS'6_1'
p710
(dp711
g6
I1
sg7
I0
ssS'6_2'
p712
(dp713
g6
I1
sg7
I0
ssS'6_3'
p714
(dp715
g6
I5
sg7
I0
ssS'1_2'
p716
(dp717
g6
I9
sg7
I7
ssS'1_1'
p718
(dp719
g6
I18
sg7
I3
ssS'7_5'
p720
(dp721
g6
I10
sg7
I1
ssS'7_4'
p722
(dp723
g6
I17
sg7
I0
ssS'0_2'
p724
(dp725
g6
I2
sg7
I2
ssS'7_3'
p726
(dp727
g6
I19
sg7
I0
ssS'7_2'
p728
(dp729
g6
I10
sg7
I0
ssS'3_1'
p730
(dp731
g6
I20
sg7
I0
ssS'3_3'
p732
(dp733
g6
I8
sg7
I8
ssS'3_2'
p734
(dp735
g6
I20
sg7
I1
ssS'0_1'
p736
(dp737
g6
I21
sg7
I0
ssS'2_1'
p738
(dp739
g6
I7
sg7
I1
ssS'2_2'
p740
(dp741
g6
I2
sg7
I0
ssS'5_3'
p742
(dp743
g6
I10
sg7
I2
ssS'5_2'
p744
(dp745
g6
I15
sg7
I4
ssS'5_1'
p746
(dp747
g6
I4
sg7
I1
ssS'5_4'
p748
(dp749
g6
I7
sg7
I6
ssS'4_2'
p750
(dp751
g6
I10
sg7
I0
ssS'4_3'
p752
(dp753
g6
I9
sg7
I0
ssS'7_1'
p754
(dp755
g6
I4
sg7
I0
ssS'4_1'
p756
(dp757
g6
I6
sg7
I0
ssS'4_4'
p758
(dp759
g6
I2
sg7
I2
sssS'Giannis Antetokounmpo'
p760
(dp761
S'6_4'
p762
(dp763
g6
I11
sg7
I0
ssS'6_5'
p764
(dp765
g6
I2
sg7
I2
ssS'6_1'
p766
(dp767
g6
I2
sg7
I0
ssS'6_2'
p768
(dp769
g6
I9
sg7
I0
ssS'6_3'
p770
(dp771
g6
I10
sg7
I0
ssS'7_2'
p772
(dp773
g6
I7
sg7
I0
ssS'1_2'
p774
(dp775
g6
I5
sg7
I5
ssS'1_1'
p776
(dp777
g6
I14
sg7
I2
ssS'7_5'
p778
(dp779
g6
I13
sg7
I4
ssS'7_4'
p780
(dp781
g6
I17
sg7
I1
ssS'7_6'
p782
(dp783
g6
I3
sg7
I3
ssS'0_2'
p784
(dp785
g6
I2
sg7
I2
ssS'7_3'
p786
(dp787
g6
I15
sg7
I0
ssS'0_1'
p788
(dp789
g6
I23
sg7
I1
ssS'3_1'
p790
(dp791
g6
I22
sg7
I0
ssS'3_3'
p792
(dp793
g6
I8
sg7
I8
ssS'3_2'
p794
(dp795
g6
I18
sg7
I3
ssS'2_1'
p796
(dp797
g6
I6
sg7
I0
ssS'2_2'
p798
(dp799
g6
I4
sg7
I0
ssS'2_3'
p800
(dp801
g6
I1
sg7
I0
ssS'5_3'
p802
(dp803
g6
I11
sg7
I1
ssS'5_2'
p804
(dp805
g6
I11
sg7
I0
ssS'5_1'
p806
(dp807
g6
I3
sg7
I0
ssS'5_4'
p808
(dp809
g6
I9
sg7
I5
ssS'4_2'
p810
(dp811
g6
I17
sg7
I0
ssS'4_3'
p812
(dp813
g6
I9
sg7
I0
ssS'7_1'
p814
(dp815
g6
I4
sg7
I1
ssS'4_1'
p816
(dp817
g6
I8
sg7
I0
ssS'4_4'
p818
(dp819
g6
I1
sg7
I0
sssS'Russell Westbrook'
p820
(dp821
S'6_4'
p822
(dp823
g6
I2
sg7
I0
ssS'6_1'
p824
(dp825
g6
I1
sg7
I0
ssS'6_2'
p826
(dp827
g6
I3
sg7
I0
ssS'6_3'
p828
(dp829
g6
I1
sg7
I0
ssS'7_2'
p830
(dp831
g6
I10
sg7
I5
ssS'1_2'
p832
(dp833
g6
I4
sg7
I3
ssS'1_1'
p834
(dp835
g6
I18
sg7
I3
ssS'7_5'
p836
(dp837
g6
I6
sg7
I1
ssS'7_4'
p838
(dp839
g6
I11
sg7
I3
ssS'7_1'
p840
(dp841
g6
I6
sg7
I1
ssS'7_3'
p842
(dp843
g6
I17
sg7
I2
ssS'0_1'
p844
(dp845
g6
I8
sg7
I0
ssS'3_1'
p846
(dp847
g6
I18
sg7
I0
ssS'3_3'
p848
(dp849
g6
I1
sg7
I0
ssS'3_2'
p850
(dp851
g6
I13
sg7
I0
ssS'2_1'
p852
(dp853
g6
I6
sg7
I0
ssS'2_2'
p854
(dp855
g6
I4
sg7
I0
ssS'5_3'
p856
(dp857
g6
I12
sg7
I3
ssS'5_2'
p858
(dp859
g6
I12
sg7
I1
ssS'5_1'
p860
(dp861
g6
I7
sg7
I1
ssS'5_5'
p862
(dp863
g6
I1
sg7
I1
ssS'5_4'
p864
(dp865
g6
I4
sg7
I0
ssS'4_2'
p866
(dp867
g6
I16
sg7
I0
ssS'4_3'
p868
(dp869
g6
I8
sg7
I0
ssS'4_1'
p870
(dp871
g6
I15
sg7
I0
sssS'Mike Conley'
p872
(dp873
S'6_5'
p874
(dp875
g6
I1
sg7
I1
ssS'6_1'
p876
(dp877
g6
I6
sg7
I0
ssS'6_2'
p878
(dp879
g6
I3
sg7
I0
ssS'6_3'
p880
(dp881
g6
I1
sg7
I1
ssS'7_2'
p882
(dp883
g6
I14
sg7
I2
ssS'1_2'
p884
(dp885
g6
I1
sg7
I1
ssS'1_1'
p886
(dp887
g6
I9
sg7
I2
ssS'7_5'
p888
(dp889
g6
I3
sg7
I1
ssS'7_4'
p890
(dp891
g6
I6
sg7
I2
ssS'7_1'
p892
(dp893
g6
I9
sg7
I2
ssS'7_3'
p894
(dp895
g6
I13
sg7
I2
ssS'0_1'
p896
(dp897
g6
I9
sg7
I0
ssS'3_1'
p898
(dp899
g6
I10
sg7
I1
ssS'3_2'
p900
(dp901
g6
I6
sg7
I1
ssS'2_1'
p902
(dp903
g6
I8
sg7
I1
ssS'2_2'
p904
(dp905
g6
I1
sg7
I0
ssS'5_3'
p906
(dp907
g6
I1
sg7
I0
ssS'5_2'
p908
(dp909
g6
I6
sg7
I1
ssS'5_1'
p910
(dp911
g6
I4
sg7
I1
ssS'5_4'
p912
(dp913
g6
I2
sg7
I0
ssS'4_2'
p914
(dp915
g6
I9
sg7
I1
ssS'4_3'
p916
(dp917
g6
I5
sg7
I0
ssS'4_1'
p918
(dp919
g6
I8
sg7
I0
sssS'DeAndre Jordan'
p920
(dp921
S'6_4'
p922
(dp923
g6
I2
sg7
I0
ssS'6_5'
p924
(dp925
g6
I1
sg7
I0
ssS'6_3'
p926
(dp927
g6
I2
sg7
I0
ssS'1_2'
p928
(dp929
g6
I9
sg7
I7
ssS'1_1'
p930
(dp931
g6
I20
sg7
I5
ssS'7_5'
p932
(dp933
g6
I5
sg7
I2
ssS'7_4'
p934
(dp935
g6
I12
sg7
I3
ssS'7_6'
p936
(dp937
g6
I1
sg7
I1
ssS'7_1'
p938
(dp939
g6
I2
sg7
I1
ssS'7_3'
p940
(dp941
g6
I16
sg7
I3
ssS'7_2'
p942
(dp943
g6
I7
sg7
I0
ssS'3_1'
p944
(dp945
g6
I22
sg7
I0
ssS'3_3'
p946
(dp947
g6
I10
sg7
I7
ssS'3_2'
p948
(dp949
g6
I20
sg7
I1
ssS'0_1'
p950
(dp951
g6
I19
sg7
I0
ssS'2_1'
p952
(dp953
g6
I3
sg7
I0
ssS'2_2'
p954
(dp955
g6
I1
sg7
I0
ssS'2_3'
p956
(dp957
g6
I1
sg7
I0
ssS'5_3'
p958
(dp959
g6
I18
sg7
I4
ssS'5_2'
p960
(dp961
g6
I19
sg7
I6
ssS'5_1'
p962
(dp963
g6
I9
sg7
I2
ssS'5_5'
p964
(dp965
g6
I1
sg7
I0
ssS'5_4'
p966
(dp967
g6
I11
sg7
I8
ssS'4_2'
p968
(dp969
g6
I13
sg7
I0
ssS'4_3'
p970
(dp971
g6
I5
sg7
I0
ssS'4_1'
p972
(dp973
g6
I11
sg7
I0
ssS'4_4'
p974
(dp975
g6
I1
sg7
I0
ssS'0_2'
p976
(dp977
g6
I1
sg7
I1
sssS'James Harden'
p978
(dp979
S'6_4'
p980
(dp981
g6
I4
sg7
I0
ssS'6_5'
p982
(dp983
g6
I1
sg7
I0
ssS'6_1'
p984
(dp985
g6
I1
sg7
I0
ssS'6_3'
p986
(dp987
g6
I2
sg7
I0
ssS'1_3'
p988
(dp989
g6
I1
sg7
I1
ssS'1_2'
p990
(dp991
g6
I5
sg7
I1
ssS'1_1'
p992
(dp993
g6
I34
sg7
I0
ssS'7_5'
p994
(dp995
g6
I6
sg7
I0
ssS'7_4'
p996
(dp997
g6
I13
sg7
I0
ssS'7_6'
p998
(dp999
g6
I1
sg7
I1
ssS'0_2'
p1000
(dp1001
g6
I1
sg7
I0
ssS'7_3'
p1002
(dp1003
g6
I12
sg7
I1
ssS'7_2'
p1004
(dp1005
g6
I7
sg7
I0
ssS'3_1'
p1006
(dp1007
g6
I17
sg7
I0
ssS'3_3'
p1008
(dp1009
g6
I4
sg7
I0
ssS'3_2'
p1010
(dp1011
g6
I25
sg7
I0
ssS'3_4'
p1012
(dp1013
g6
I1
sg7
I0
ssS'2_1'
p1014
(dp1015
g6
I1
sg7
I0
ssS'5_3'
p1016
(dp1017
g6
I23
sg7
I2
ssS'5_2'
p1018
(dp1019
g6
I18
sg7
I0
ssS'5_1'
p1020
(dp1021
g6
I8
sg7
I0
ssS'5_5'
p1022
(dp1023
g6
I2
sg7
I1
ssS'5_4'
p1024
(dp1025
g6
I8
sg7
I1
ssS'4_2'
p1026
(dp1027
g6
I18
sg7
I0
ssS'4_3'
p1028
(dp1029
g6
I11
sg7
I0
ssS'7_1'
p1030
(dp1031
g6
I3
sg7
I0
ssS'0_1'
p1032
(dp1033
g6
I21
sg7
I0
ssS'4_4'
p1034
(dp1035
g6
I2
sg7
I0
ssS'4_1'
p1036
(dp1037
g6
I4
sg7
I0
sssS'Anthony Davis'
p1038
(dp1039
S'6_4'
p1040
(dp1041
g6
I2
sg7
I1
ssS'6_1'
p1042
(dp1043
g6
I1
sg7
I0
ssS'6_2'
p1044
(dp1045
g6
I2
sg7
I0
ssS'6_3'
p1046
(dp1047
g6
I1
sg7
I0
ssS'1_2'
p1048
(dp1049
g6
I2
sg7
I2
ssS'1_1'
p1050
(dp1051
g6
I20
sg7
I6
ssS'7_5'
p1052
(dp1053
g6
I2
sg7
I0
ssS'7_4'
p1054
(dp1055
g6
I5
sg7
I1
ssS'7_1'
p1056
(dp1057
g6
I3
sg7
I0
ssS'7_3'
p1058
(dp1059
g6
I11
sg7
I0
ssS'0_1'
p1060
(dp1061
g6
I15
sg7
I0
ssS'3_1'
p1062
(dp1063
g6
I17
sg7
I0
ssS'3_3'
p1064
(dp1065
g6
I2
sg7
I2
ssS'3_2'
p1066
(dp1067
g6
I12
sg7
I3
ssS'2_1'
p1068
(dp1069
g6
I2
sg7
I0
ssS'2_2'
p1070
(dp1071
g6
I2
sg7
I0
ssS'5_3'
p1072
(dp1073
g6
I6
sg7
I0
ssS'5_2'
p1074
(dp1075
g6
I16
sg7
I2
ssS'5_1'
p1076
(dp1077
g6
I7
sg7
I4
ssS'5_4'
p1078
(dp1079
g6
I6
sg7
I5
ssS'4_2'
p1080
(dp1081
g6
I10
sg7
I0
ssS'4_3'
p1082
(dp1083
g6
I6
sg7
I0
ssS'7_2'
p1084
(dp1085
g6
I8
sg7
I0
ssS'4_1'
p1086
(dp1087
g6
I5
sg7
I0
sss.