(dp1
S'Hassan Whiteside'
p2
(dp3
S'3_3'
p4
(dp5
S'Time_50'
p6
(lp7
cnumpy.core.multiarray
scalar
p8
(cnumpy
dtype
p9
(S'f8'
I0
I1
tRp10
(I3
S'<'
NNNI-1
I-1
I0
tbS'\xf8\x03?\xf0\x03?%@'
tRp11
ag8
(g10
S'\xf4\x03?\xf0\x03\xbf,@'
tRp12
ag8
(g10
S'\xd2\xe1\x1c\xce\xe1\x9c @'
tRp13
ag8
(g10
S'\x04*\xa0\x02*\xa0\x1b@'
tRp14
asS'GameID'
p15
(lp16
g8
(g9
(S'S13'
I0
I1
tRp17
(I3
S'|'
NNNI13
I1
I0
tbS'="0021600049"'
tRp18
ag8
(g9
(S'S13'
I0
I1
tRp19
(I3
S'|'
NNNI13
I1
I0
tbS'="0021600473"'
tRp20
ag8
(g9
(S'S13'
I0
I1
tRp21
(I3
S'|'
NNNI13
I1
I0
tbS'="0021600799"'
tRp22
ag8
(g9
(S'S13'
I0
I1
tRp23
(I3
S'|'
NNNI13
I1
I0
tbS'="0021601165"'
tRp24
asS'MP_event'
p25
(lp26
F11.783333333333331
aF15.083333333333336
aF13.549999999999997
aF13.550000000000001
asS'MP_game'
p27
(lp28
F22.749999999999993
aF19
aF25.066666666666666
aF26.466666666666672
asS'Fouls_game'
p29
(lp30
I5
aI4
aI4
aI3
asS'Time_90'
p31
(lp32
g8
(g10
S'Sk\x10\xa92\xb7\xfa?'
tRp33
ag8
(g10
S'Sk\x10\xa92\xb7\n@'
tRp34
ag8
(g10
S'Sk\x10\xa92\xb7\n@'
tRp35
ag8
(g10
S'\x81P\xcc\xfee\t\x14@'
tRp36
assS'1_2'
p37
(dp38
g6
(lp39
g8
(g10
S'\xa0\xc39\x9c\xc39\x1e@'
tRp40
ag8
(g10
S'\x00\x00\x00\x00\x00\x00\x00\x00'
tRp41
ag8
(g10
S'X\x98\x84I\x98\x84\x0f@'
tRp42
ag8
(g10
S'\xe0 \r\xd2 \r\x08@'
tRp43
ag8
(g10
S'Pn\xe4Fn\xe4\x1c@'
tRp44
ag8
(g10
S'\xc8\xe5[\xbe\xe5[\x13@'
tRp45
ag8
(g10
S'\x10T@\x05T@\x05@'
tRp46
ag8
(g10
S'\xd0\xf6l\xcf\xf6l\x12@'
tRp47
ag8
(g10
S'\xe0tM\xd7tM\xff?'
tRp48
ag8
(g10
S'JY\x94EY\x94!@'
tRp49
asg15
(lp50
g8
(g9
(S'S13'
I0
I1
tRp51
(I3
S'|'
NNNI13
I1
I0
tbS'="0021600004"'
tRp52
ag8
(g9
(S'S13'
I0
I1
tRp53
(I3
S'|'
NNNI13
I1
I0
tbS'="0021600037"'
tRp54
ag8
(g9
(S'S13'
I0
I1
tRp55
(I3
S'|'
NNNI13
I1
I0
tbS'="0021600170"'
tRp56
ag8
(g9
(S'S13'
I0
I1
tRp57
(I3
S'|'
NNNI13
I1
I0
tbS'="0021600199"'
tRp58
ag8
(g9
(S'S13'
I0
I1
tRp59
(I3
S'|'
NNNI13
I1
I0
tbS'="0021600243"'
tRp60
ag8
(g9
(S'S13'
I0
I1
tRp61
(I3
S'|'
NNNI13
I1
I0
tbS'="0021600377"'
tRp62
ag8
(g9
(S'S13'
I0
I1
tRp63
(I3
S'|'
NNNI13
I1
I0
tbS'="0021600397"'
tRp64
ag8
(g9
(S'S13'
I0
I1
tRp65
(I3
S'|'
NNNI13
I1
I0
tbS'="0021600637"'
tRp66
ag8
(g9
(S'S13'
I0
I1
tRp67
(I3
S'|'
NNNI13
I1
I0
tbS'="0021600841"'
tRp68
ag8
(g9
(S'S13'
I0
I1
tRp69
(I3
S'|'
NNNI13
I1
I0
tbS'="0021600863"'
tRp70
asg25
(lp71
F9.4166666666666661
aF10.783333333333333
aF6.2833333333333332
aF11.216666666666667
aF7.8833333333333337
aF11.216666666666667
aF10.033333333333333
aF5.3166666666666682
aF6.5999999999999996
aF8.6166666666666671
asg27
(lp72
F25.81666666666667
aF34.949999999999996
aF29.433333333333334
aF30.366666666666667
aF26.149999999999999
aF28.533333333333331
aF30.716666666666669
aF28.766666666666673
aF31.416666666666671
aF24.583333333333332
asg29
(lp73
I3
aI2
aI3
aI5
aI4
aI3
aI4
aI2
aI4
aI2
asg31
(lp74
g8
(g10
S'\x81P\xcc\xfee\t\x14@'
tRp75
ag41
ag42
ag8
(g10
S'Sk\x10\xa92\xb7\xfa?'
tRp76
ag8
(g10
S'Sk\x10\xa92\xb7\n@'
tRp77
ag45
ag46
ag47
ag48
ag8
(g10
S'Sk\x10\xa92\xb7\x1a@'
tRp78
assS'5_4'
p79
(dp80
g6
(lp81
g8
(g10
S'\xc8\xe5[\xbe\xe5[\x19@'
tRp82
ag8
(g10
S'\xb0\xd4J\xad\xd4J\x1c@'
tRp83
ag8
(g10
S'\xd0\x0f\xfc\xc0\x0f\xfc\x08@'
tRp84
asg15
(lp85
g8
(g9
(S'S13'
I0
I1
tRp86
(I3
S'|'
NNNI13
I1
I0
tbS'="0021600350"'
tRp87
ag8
(g9
(S'S13'
I0
I1
tRp88
(I3
S'|'
NNNI13
I1
I0
tbS'="0021601041"'
tRp89
ag8
(g9
(S'S13'
I0
I1
tRp90
(I3
S'|'
NNNI13
I1
I0
tbS'="0021601068"'
tRp91
asg25
(lp92
F27.033333333333331
aF25.116666666666664
aF22.616666666666667
asg27
(lp93
F27.033333333333331
aF26.300000000000004
aF30.25
asg29
(lp94
I5
aI5
aI4
asg31
(lp95
g8
(g10
S'Sk\x10\xa92\xb7\xfa?'
tRp96
ag8
(g10
S'Sk\x10\xa92\xb7\xfa?'
tRp97
ag84
asssS'Nikola Jokic'
p98
(dp99
g4
(dp100
g6
(lp101
g8
(g10
S'\x8d:\xaa\xa8}\x83%@'
tRp102
ag8
(g10
S'#\x84\x10B\x08!0@'
tRp103
ag8
(g10
S'\x8aLe\xc8T\x06!@'
tRp104
ag8
(g10
S'\x80\x98\xfb\x87\xb9\x7f\x00@'
tRp105
ag8
(g10
S'\x00\x00\x00\x00\x00\x00\x00\x00'
tRp106
asg15
(lp107
g8
(g9
(S'S13'
I0
I1
tRp108
(I3
S'|'
NNNI13
I1
I0
tbS'="0021600386"'
tRp109
ag8
(g9
(S'S13'
I0
I1
tRp110
(I3
S'|'
NNNI13
I1
I0
tbS'="0021600426"'
tRp111
ag8
(g9
(S'S13'
I0
I1
tRp112
(I3
S'|'
NNNI13
I1
I0
tbS'="0021600500"'
tRp113
ag8
(g9
(S'S13'
I0
I1
tRp114
(I3
S'|'
NNNI13
I1
I0
tbS'="0021600785"'
tRp115
ag8
(g9
(S'S13'
I0
I1
tRp116
(I3
S'|'
NNNI13
I1
I0
tbS'="0021601198"'
tRp117
asg25
(lp118
F14.566666666666663
aF8.4833333333333307
aF11.700000000000001
aF13.716666666666667
aF16.383333333333329
asg27
(lp119
F19.383333333333333
aF14.499999999999996
aF22.116666666666664
aF28.56666666666667
aF31.5
asg29
(lp120
I5
aI3
aI5
aI4
aI5
asg31
(lp121
g8
(g10
S'G\xe6\xe2\xc3>)\xfa?'
tRp122
ag8
(g10
S'\xb6,\xea\x12\xef\x9e\x13@'
tRp123
ag8
(g10
S'G\xe6\xe2\xc3>)\xfa?'
tRp124
ag105
ag106
assg37
(dp125
g6
(lp126
g8
(g10
S'D\x08!\x84\x10B#@'
tRp127
ag8
(g10
S'T\x192\x95!\xd3$@'
tRp128
ag8
(g10
S'\xbc\x7f\x98\xfb\x879%@'
tRp129
ag8
(g10
S'"\xe6\xfea\xee\x9f"@'
tRp130
ag8
(g10
S'x;T\xb7Cu.@'
tRp131
ag8
(g10
S'\x00\xc4\xdc?\xcc}#@'
tRp132
ag8
(g10
S'\x10\xd5\xedP\xdd\x0e&@'
tRp133
ag8
(g10
S'\x00\x00\x00\x00\x00\x00\x00\x00'
tRp134
asg15
(lp135
g8
(g9
(S'S13'
I0
I1
tRp136
(I3
S'|'
NNNI13
I1
I0
tbS'="0021600323"'
tRp137
ag8
(g9
(S'S13'
I0
I1
tRp138
(I3
S'|'
NNNI13
I1
I0
tbS'="0021600404"'
tRp139
ag8
(g9
(S'S13'
I0
I1
tRp140
(I3
S'|'
NNNI13
I1
I0
tbS'="0021600520"'
tRp141
ag8
(g9
(S'S13'
I0
I1
tRp142
(I3
S'|'
NNNI13
I1
I0
tbS'="0021600658"'
tRp143
ag8
(g9
(S'S13'
I0
I1
tRp144
(I3
S'|'
NNNI13
I1
I0
tbS'="0021600762"'
tRp145
ag8
(g9
(S'S13'
I0
I1
tRp146
(I3
S'|'
NNNI13
I1
I0
tbS'="0021601034"'
tRp147
ag8
(g9
(S'S13'
I0
I1
tRp148
(I3
S'|'
NNNI13
I1
I0
tbS'="0021601214"'
tRp149
ag8
(g9
(S'S13'
I0
I1
tRp150
(I3
S'|'
NNNI13
I1
I0
tbS'="0021601225"'
tRp151
asg25
(lp152
F7.5166666666666675
aF8.4000000000000004
aF8.0333333333333332
aF7.6833333333333336
aF7.1833333333333336
aF8.1999999999999993
aF6.4500000000000002
aF9
asg27
(lp153
F21
aF20.216666666666669
aF20.016666666666666
aF21.316666666666666
aF15.399999999999999
aF20.883333333333333
aF19.600000000000001
aF31.933333333333334
asg29
(lp154
I3
aI5
aI2
aI3
aI3
aI5
aI2
aI4
asg31
(lp155
g8
(g10
S'\xb6,\xea\x12\xef\x9e\x13@'
tRp156
ag8
(g10
S'G\xe6\xe2\xc3>)\xfa?'
tRp157
ag8
(g10
S'G\xe6\xe2\xc3>)\x1a@'
tRp158
ag8
(g10
S'\xb6,\xea\x12\xef\x9e\x13@'
tRp159
ag8
(g10
S'\xb6,\xea\x12\xef\x9e\x13@'
tRp160
ag8
(g10
S'G\xe6\xe2\xc3>)\xfa?'
tRp161
ag8
(g10
S'G\xe6\xe2\xc3>)\x1a@'
tRp162
ag134
assg79
(dp163
g6
(lp164
g8
(g10
S'\x12\xd5\xedP\xdd\x8e @'
tRp165
ag8
(g10
S'\x00\x00\x00\x00\x00\x00\x00\x00'
tRp166
ag8
(g10
S'\xe8v\xa8n\x87\xea\x18@'
tRp167
ag8
(g10
S'\x00\x00\x00\x00\x00\x00\x00\x00'
tRp168
ag8
(g10
S'2\xf7\x0fs\xff\xb0/@'
tRp169
asg15
(lp170
g8
(g9
(S'S13'
I0
I1
tRp171
(I3
S'|'
NNNI13
I1
I0
tbS'="0021600042"'
tRp172
ag8
(g9
(S'S13'
I0
I1
tRp173
(I3
S'|'
NNNI13
I1
I0
tbS'="0021600470"'
tRp174
ag8
(g9
(S'S13'
I0
I1
tRp175
(I3
S'|'
NNNI13
I1
I0
tbS'="0021600776"'
tRp176
ag8
(g9
(S'S13'
I0
I1
tRp177
(I3
S'|'
NNNI13
I1
I0
tbS'="0021600842"'
tRp178
ag8
(g9
(S'S13'
I0
I1
tRp179
(I3
S'|'
NNNI13
I1
I0
tbS'="0021600864"'
tRp180
asg25
(lp181
F22.349999999999994
aF24.166666666666671
aF19.116666666666667
aF25.583333333333329
aF14.783333333333331
asg27
(lp182
F22.349999999999998
aF32.38333333333334
aF24.400000000000006
aF33.966666666666669
aF14.783333333333335
asg29
(lp183
I4
aI4
aI5
aI5
aI4
asg31
(lp184
g8
(g10
S'G\xe6\xe2\xc3>)\n@'
tRp185
ag166
ag8
(g10
S'G\xe6\xe2\xc3>)\xfa?'
tRp186
ag168
ag8
(g10
S'G\xe6\xe2\xc3>)\n@'
tRp187
asssS'James Harden'
p188
(dp189
g4
(dp190
g6
(lp191
sg15
(lp192
sg25
(lp193
sg27
(lp194
sg29
(lp195
sg31
(lp196
ssg37
(dp197
g6
(lp198
g8
(g10
S'\x00\x00\x00\x00\x00\x00\x00\x00'
tRp199
asg15
(lp200
g8
(g9
(S'S13'
I0
I1
tRp201
(I3
S'|'
NNNI13
I1
I0
tbS'="0041600235"'
tRp202
asg25
(lp203
F11.5
asg27
(lp204
F38.400000000000006
asg29
(lp205
I3
asg31
(lp206
g199
assg79
(dp207
g6
(lp208
g8
(g10
S'@\x89\xefU\xbc"\xf1?'
tRp209
asg15
(lp210
g8
(g9
(S'S13'
I0
I1
tRp211
(I3
S'|'
NNNI13
I1
I0
tbS'="0021600904"'
tRp212
asg25
(lp213
F25.033333333333339
asg27
(lp214
F35.566666666666663
asg29
(lp215
I4
asg31
(lp216
g209
asssS'Damian Lillard'
p217
(dp218
g4
(dp219
g6
(lp220
g8
(g10
S'\xcc\xf3<\xcf\xf3\x1c!@'
tRp221
ag8
(g10
S'\x108\x81\x138a+@'
tRp222
ag8
(g10
S'x\xc5W|\xc5\x17\x14@'
tRp223
asg15
(lp224
g8
(g9
(S'S13'
I0
I1
tRp225
(I3
S'|'
NNNI13
I1
I0
tbS'="0021600002"'
tRp226
ag8
(g9
(S'S13'
I0
I1
tRp227
(I3
S'|'
NNNI13
I1
I0
tbS'="0021600850"'
tRp228
ag8
(g9
(S'S13'
I0
I1
tRp229
(I3
S'|'
NNNI13
I1
I0
tbS'="0021600983"'
tRp230
asg25
(lp231
F16.366666666666667
aF11.983333333333331
aF13.083333333333336
asg27
(lp232
F27.216666666666669
aF22.083333333333336
aF30.75
asg29
(lp233
I3
aI3
aI5
asg31
(lp234
g8
(g10
S'\xd5\xffc\xe1d\x06!@'
tRp235
ag8
(g10
S'\xd5\xffc\xe1d\x06!@'
tRp236
ag8
(g10
S'\x1aU\x85,1\xb3\x06@'
tRp237
assg37
(dp238
g6
(lp239
g8
(g10
S'\xcc\x1a\xad\xd1\x1am\x1f@'
tRp240
ag8
(g10
S'\x9a\xc0\t\x9c\xc0i!@'
tRp241
asg15
(lp242
g8
(g9
(S'S13'
I0
I1
tRp243
(I3
S'|'
NNNI13
I1
I0
tbS'="0021600542"'
tRp244
ag8
(g9
(S'S13'
I0
I1
tRp245
(I3
S'|'
NNNI13
I1
I0
tbS'="0021600781"'
tRp246
asg25
(lp247
F8.5500000000000007
aF8.3000000000000007
asg27
(lp248
F27.916666666666668
aF27.066666666666666
asg29
(lp249
I3
aI5
asg31
(lp250
g240
ag8
(g10
S'\x1aU\x85,1\xb3\x06@'
tRp251
assg79
(dp252
g6
(lp253
sg15
(lp254
sg25
(lp255
sg27
(lp256
sg29
(lp257
sg31
(lp258
sssS'Gordon Hayward'
p259
(dp260
g4
(dp261
g6
(lp262
g8
(g10
S'\xc4M1j\xf8{ @'
tRp263
asg15
(lp264
g8
(g9
(S'S13'
I0
I1
tRp265
(I3
S'|'
NNNI13
I1
I0
tbS'="0021600427"'
tRp266
asg25
(lp267
F17.550000000000001
asg27
(lp268
F26.949999999999996
asg29
(lp269
I3
asg31
(lp270
g263
assg37
(dp271
g6
(lp272
g8
(g10
S'\xd4^B{\t\r$@'
tRp273
asg15
(lp274
g8
(g9
(S'S13'
I0
I1
tRp275
(I3
S'|'
NNNI13
I1
I0
tbS'="0021600556"'
tRp276
asg25
(lp277
F7.25
asg27
(lp278
F25.166666666666664
asg29
(lp279
I2
asg31
(lp280
g273
assg79
(dp281
g6
(lp282
sg15
(lp283
sg25
(lp284
sg27
(lp285
sg29
(lp286
sg31
(lp287
sssS'Karl-Anthony Towns'
p288
(dp289
g4
(dp290
g6
(lp291
g8
(g10
S'P\x1b\xe8\xb4\x81N#@'
tRp292
ag8
(g10
S'\xd4\xa3p=\nW#@'
tRp293
ag8
(g10
S'\xa8G\xe1z\x14\xae\x1a@'
tRp294
ag8
(g10
S'JX\x93$|\xf2&@'
tRp295
ag8
(g10
S'\x80\xc2\xf5(\\\x8f\x04@'
tRp296
ag8
(g10
S'0\xd0i\x03\x9d6\x1f@'
tRp297
asg15
(lp298
g8
(g9
(S'S13'
I0
I1
tRp299
(I3
S'|'
NNNI13
I1
I0
tbS'="0021600190"'
tRp300
ag8
(g9
(S'S13'
I0
I1
tRp301
(I3
S'|'
NNNI13
I1
I0
tbS'="0021600416"'
tRp302
ag8
(g9
(S'S13'
I0
I1
tRp303
(I3
S'|'
NNNI13
I1
I0
tbS'="0021600468"'
tRp304
ag8
(g9
(S'S13'
I0
I1
tRp305
(I3
S'|'
NNNI13
I1
I0
tbS'="0021600748"'
tRp306
ag8
(g9
(S'S13'
I0
I1
tRp307
(I3
S'|'
NNNI13
I1
I0
tbS'="0021600955"'
tRp308
ag8
(g9
(S'S13'
I0
I1
tRp309
(I3
S'|'
NNNI13
I1
I0
tbS'="0021601178"'
tRp310
asg25
(lp311
F16.299999999999997
aF17.283333333333331
aF17.25
aF17.383333333333333
aF16.583333333333332
aF19.716666666666669
asg27
(lp312
F27.883333333333326
aF27.866666666666667
aF30.866666666666667
aF22.933333333333334
aF34.966666666666669
aF29.733333333333334
asg29
(lp313
I5
aI4
aI5
aI5
aI3
aI4
asg31
(lp314
g8
(g10
S'\xdc$\xf9\xe0\x84\xe7\xfb?'
tRp315
ag8
(g10
S'\xdc$\xf9\xe0\x84\xe7\x0b@'
tRp316
ag8
(g10
S'\xdc$\xf9\xe0\x84\xe7\xfb?'
tRp317
ag8
(g10
S'\xdc$\xf9\xe0\x84\xe7\xfb?'
tRp318
ag296
ag8
(g10
S'\xdc$\xf9\xe0\x84\xe7\x0b@'
tRp319
assg37
(dp320
g6
(lp321
g8
(g10
S'\x08\xd7\xa3p=\x8a @'
tRp322
ag8
(g10
S'H\x1b\xe8\xb4\x81N*@'
tRp323
ag8
(g10
S'\xbcX\xf2\x8b%\xbf\x17@'
tRp324
ag8
(g10
S'\xa0p=\n\xd7\xa3!@'
tRp325
ag8
(g10
S'J\x1b\xe8\xb4\x81N!@'
tRp326
ag8
(g10
S'L\x1b\xe8\xb4\x81N"@'
tRp327
ag8
(g10
S'\x1e\x85\xebQ\xb8\xde1@'
tRp328
asg15
(lp329
g8
(g9
(S'S13'
I0
I1
tRp330
(I3
S'|'
NNNI13
I1
I0
tbS'="0021600222"'
tRp331
ag8
(g9
(S'S13'
I0
I1
tRp332
(I3
S'|'
NNNI13
I1
I0
tbS'="0021600285"'
tRp333
ag8
(g9
(S'S13'
I0
I1
tRp334
(I3
S'|'
NNNI13
I1
I0
tbS'="0021600342"'
tRp335
ag8
(g9
(S'S13'
I0
I1
tRp336
(I3
S'|'
NNNI13
I1
I0
tbS'="0021600358"'
tRp337
ag8
(g9
(S'S13'
I0
I1
tRp338
(I3
S'|'
NNNI13
I1
I0
tbS'="0021600430"'
tRp339
ag8
(g9
(S'S13'
I0
I1
tRp340
(I3
S'|'
NNNI13
I1
I0
tbS'="0021600832"'
tRp341
ag8
(g9
(S'S13'
I0
I1
tRp342
(I3
S'|'
NNNI13
I1
I0
tbS'="0021601185"'
tRp343
asg25
(lp344
F8.2166666666666668
aF8.7333333333333343
aF8.9333333333333336
aF6.0166666666666666
aF8.4333333333333336
aF10.633333333333333
aF6.0999999999999996
asg27
(lp345
F29.266666666666666
aF24.38333333333334
aF31.599999999999998
aF28.716666666666669
aF28.883333333333336
aF28.383333333333333
aF19.666666666666664
asg29
(lp346
I3
aI4
aI3
aI3
aI3
aI4
aI4
asg31
(lp347
g8
(g10
S'\xa6\xdb\xba\xa8\xa3\xed\x14@'
tRp348
ag8
(g10
S'\xdc$\xf9\xe0\x84\xe7\x0b@'
tRp349
ag8
(g10
S'\xa6\xdb\xba\xa8\xa3\xed\x14@'
tRp350
ag8
(g10
S'\xa6\xdb\xba\xa8\xa3\xed\x14@'
tRp351
ag8
(g10
S'\xa6\xdb\xba\xa8\xa3\xed\x14@'
tRp352
ag8
(g10
S'\xdc$\xf9\xe0\x84\xe7\x0b@'
tRp353
ag8
(g10
S'\xdc$\xf9\xe0\x84\xe7\x0b@'
tRp354
assg79
(dp355
g6
(lp356
g8
(g10
S'JX\x93$|\xf2&@'
tRp357
ag8
(g10
S'\x04\xd7\xa3p=\x8a%@'
tRp358
ag8
(g10
S'\xe0z\x14\xaeG\xe1\x10@'
tRp359
ag8
(g10
S'JX\x93$|\xf2&@'
tRp360
ag8
(g10
S'JX\x93$|\xf2&@'
tRp361
asg15
(lp362
g8
(g9
(S'S13'
I0
I1
tRp363
(I3
S'|'
NNNI13
I1
I0
tbS'="0021600034"'
tRp364
ag8
(g9
(S'S13'
I0
I1
tRp365
(I3
S'|'
NNNI13
I1
I0
tbS'="0021600101"'
tRp366
ag8
(g9
(S'S13'
I0
I1
tRp367
(I3
S'|'
NNNI13
I1
I0
tbS'="0021600135"'
tRp368
ag8
(g9
(S'S13'
I0
I1
tRp369
(I3
S'|'
NNNI13
I1
I0
tbS'="0021600258"'
tRp370
ag8
(g9
(S'S13'
I0
I1
tRp371
(I3
S'|'
NNNI13
I1
I0
tbS'="0021600804"'
tRp372
asg25
(lp373
F26.016666666666669
aF24.566666666666666
aF28.933333333333326
aF21.949999999999996
aF25.549999999999997
asg27
(lp374
F26.016666666666669
aF26.766666666666673
aF33.316666666666663
aF21.949999999999999
aF25.550000000000001
asg29
(lp375
I5
aI5
aI5
aI5
aI5
asg31
(lp376
g8
(g10
S'\xdc$\xf9\xe0\x84\xe7\xfb?'
tRp377
ag8
(g10
S'\xdc$\xf9\xe0\x84\xe7\xfb?'
tRp378
ag8
(g10
S'\xdc$\xf9\xe0\x84\xe7\xfb?'
tRp379
ag8
(g10
S'\xdc$\xf9\xe0\x84\xe7\xfb?'
tRp380
ag8
(g10
S'\xdc$\xf9\xe0\x84\xe7\xfb?'
tRp381
asssS'Kevin Durant'
p382
(dp383
g4
(dp384
g6
(lp385
g8
(g10
S'\xd4\x04\xe3\xad\xec\xf3!@'
tRp386
asg15
(lp387
g8
(g9
(S'S13'
I0
I1
tRp388
(I3
S'|'
NNNI13
I1
I0
tbS'="0021600427"'
tRp389
asg25
(lp390
F17.966666666666661
asg27
(lp391
F24.733333333333327
asg29
(lp392
I4
asg31
(lp393
g8
(g10
S'\xcdK\x86!\x83\x1d\x16@'
tRp394
assg37
(dp395
g6
(lp396
g8
(g10
S'\xd0\x9b\x14@;X\x06@'
tRp397
ag8
(g10
S'\xd8\xac%QLi\r@'
tRp398
ag8
(g10
S'\x88\xf8\xb4J\xc8\xd6\x15@'
tRp399
asg15
(lp400
g8
(g9
(S'S13'
I0
I1
tRp401
(I3
S'|'
NNNI13
I1
I0
tbS'="0021600351"'
tRp402
ag8
(g9
(S'S13'
I0
I1
tRp403
(I3
S'|'
NNNI13
I1
I0
tbS'="0041600224"'
tRp404
ag8
(g9
(S'S13'
I0
I1
tRp405
(I3
S'|'
NNNI13
I1
I0
tbS'="0041600405"'
tRp406
asg25
(lp407
F7.3166666666666664
aF5.2000000000000002
aF7.2166666666666668
asg27
(lp408
F30.916666666666664
aF30.033333333333335
aF28.250000000000007
asg29
(lp409
I2
aI4
aI3
asg31
(lp410
g397
ag398
ag399
assg79
(dp411
g6
(lp412
g8
(g10
S'\x00M0\xde\xca>\xef?'
tRp413
ag8
(g10
S'\xf4^\x1b\xb1.=\x10@'
tRp414
asg15
(lp415
g8
(g9
(S'S13'
I0
I1
tRp416
(I3
S'|'
NNNI13
I1
I0
tbS'="0021600813"'
tRp417
ag8
(g9
(S'S13'
I0
I1
tRp418
(I3
S'|'
NNNI13
I1
I0
tbS'="0041600311"'
tRp419
asg25
(lp420
F27.133333333333333
aF29.650000000000002
asg27
(lp421
F32.733333333333334
aF29.650000000000002
asg29
(lp422
I5
aI4
asg31
(lp423
g413
ag414
asssS'Mike Conley'
p424
(dp425
g4
(dp426
g6
(lp427
sg15
(lp428
sg25
(lp429
sg27
(lp430
sg29
(lp431
sg31
(lp432
ssg37
(dp433
g6
(lp434
g8
(g10
S"p\x04\r'u_\xfe?"
tRp435
asg15
(lp436
g8
(g9
(S'S13'
I0
I1
tRp437
(I3
S'|'
NNNI13
I1
I0
tbS'="0021600788"'
tRp438
asg25
(lp439
F6.333333333333333
asg27
(lp440
F30.849999999999998
asg29
(lp441
I3
asg31
(lp442
g435
assg79
(dp443
g6
(lp444
sg15
(lp445
sg25
(lp446
sg27
(lp447
sg29
(lp448
sg31
(lp449
sssS'Chris Paul'
p450
(dp451
g4
(dp452
g6
(lp453
g8
(g10
S'\xb0\x05[\xb0\x05[\x04@'
tRp454
asg15
(lp455
g8
(g9
(S'S13'
I0
I1
tRp456
(I3
S'|'
NNNI13
I1
I0
tbS'="0021600912"'
tRp457
asg25
(lp458
F14.633333333333335
asg27
(lp459
F29.383333333333333
asg29
(lp460
I5
asg31
(lp461
g8
(g10
S'\x86\xca\x80\x1f\xb2\xa5\xfd?'
tRp462
assg37
(dp463
g6
(lp464
g8
(g10
S' l\xc1\x16l\xc1\x00@'
tRp465
ag8
(g10
S'\x94>\xe9\x93>\xe9\x12@'
tRp466
ag8
(g10
S'\xb0\x05[\xb0\x05\xdb @'
tRp467
asg15
(lp468
g8
(g9
(S'S13'
I0
I1
tRp469
(I3
S'|'
NNNI13
I1
I0
tbS'="0021600355"'
tRp470
ag8
(g9
(S'S13'
I0
I1
tRp471
(I3
S'|'
NNNI13
I1
I0
tbS'="0021601031"'
tRp472
ag8
(g9
(S'S13'
I0
I1
tRp473
(I3
S'|'
NNNI13
I1
I0
tbS'="0041600172"'
tRp474
asg25
(lp475
F9.3499999999999996
aF8.6833333333333336
aF7.8166666666666664
asg27
(lp476
F29.833333333333329
aF27.199999999999999
aF23.5
asg29
(lp477
I3
aI2
aI4
asg31
(lp478
g465
ag466
ag8
(g10
S'\x86\xca\x80\x1f\xb2\xa5\r@'
tRp479
assg79
(dp480
g6
(lp481
g8
(g10
S'\x94>\xe9\x93>\xe9\x17@'
tRp482
asg15
(lp483
g8
(g9
(S'S13'
I0
I1
tRp484
(I3
S'|'
NNNI13
I1
I0
tbS'="0021600183"'
tRp485
asg25
(lp486
F25.950000000000003
asg27
(lp487
F25.949999999999999
asg29
(lp488
I4
asg31
(lp489
g8
(g10
S'\x86\xca\x80\x1f\xb2\xa5\r@'
tRp490
asssS'Jimmy Butler'
p491
(dp492
g4
(dp493
g6
(lp494
g8
(g10
S'\xf8\xa6\xc2\x0e\xa0o\x1c@'
tRp495
ag8
(g10
S'\xf8\xa6\xc2\x0e\xa0o\x1c@'
tRp496
asg15
(lp497
g8
(g9
(S'S13'
I0
I1
tRp498
(I3
S'|'
NNNI13
I1
I0
tbS'="0021600807"'
tRp499
asg25
(lp500
F15.500000000000004
asg27
(lp501
F30.333333333333336
aF30.333333333333336
asg29
(lp502
I3
aI3
asg31
(lp503
g495
ag496
assg37
(dp504
g6
(lp505
g8
(g10
S'\x80\x02q\xa1\xe6$\xfc?'
tRp506
ag8
(g10
S'\x80\x02q\xa1\xe6$\xfc?'
tRp507
ag8
(g10
S'`\r)u\x06\xd6\x1c@'
tRp508
ag8
(g10
S'`\r)u\x06\xd6\x1c@'
tRp509
asg15
(lp510
g8
(g9
(S'S13'
I0
I1
tRp511
(I3
S'|'
NNNI13
I1
I0
tbS'="0021600296"'
tRp512
ag8
(g9
(S'S13'
I0
I1
tRp513
(I3
S'|'
NNNI13
I1
I0
tbS'="0021600393"'
tRp514
asg25
(lp515
F5.1333333333333329
aF8.4833333333333343
asg27
(lp516
F35.683333333333323
aF35.683333333333323
aF30.233333333333334
aF30.233333333333334
asg29
(lp517
I3
aI3
aI3
aI3
asg31
(lp518
g506
ag507
ag508
ag509
assg79
(dp519
g6
(lp520
g8
(g10
S'\x90dr\x18\xe1\xc8"@'
tRp521
ag8
(g10
S'\x90dr\x18\xe1\xc8"@'
tRp522
asg15
(lp523
g8
(g9
(S'S13'
I0
I1
tRp524
(I3
S'|'
NNNI13
I1
I0
tbS'="0021600061"'
tRp525
asg25
(lp526
F28.049999999999997
asg27
(lp527
F28.049999999999997
aF28.049999999999997
asg29
(lp528
I5
aI5
asg31
(lp529
g8
(g10
S'\x11\x0c_\x92\xde\x0f\x0e@'
tRp530
ag8
(g10
S'\x11\x0c_\x92\xde\x0f\x0e@'
tRp531
asssS'LeBron James'
p532
(dp533
g4
(dp534
g6
(lp535
g8
(g10
S'\x00\x00\x00\x00\x00\x00\x00\x00'
tRp536
asg15
(lp537
g8
(g9
(S'S13'
I0
I1
tRp538
(I3
S'|'
NNNI13
I1
I0
tbS'="0021600657"'
tRp539
asg25
(lp540
F19.600000000000001
asg27
(lp541
F40.333333333333336
asg29
(lp542
I3
asg31
(lp543
g536
assg37
(dp544
g6
(lp545
sg15
(lp546
sg25
(lp547
sg27
(lp548
sg29
(lp549
sg31
(lp550
ssg79
(dp551
g6
(lp552
sg15
(lp553
sg25
(lp554
sg27
(lp555
sg29
(lp556
sg31
(lp557
sssS'Stephen Curry'
p558
(dp559
g4
(dp560
g6
(lp561
g8
(g10
S'0\x07X\xb6\xf9\xb2\x1f@'
tRp562
ag8
(g10
S'v\xe1\t\xb9Z7(@'
tRp563
ag8
(g10
S'8\xec\x8dJ\xd1C\x0f@'
tRp564
ag8
(g10
S'\xf8\xd3$\x83\xc6\x7f\x13@'
tRp565
asg15
(lp566
g8
(g9
(S'S13'
I0
I1
tRp567
(I3
S'|'
NNNI13
I1
I0
tbS'="0021600025"'
tRp568
ag8
(g9
(S'S13'
I0
I1
tRp569
(I3
S'|'
NNNI13
I1
I0
tbS'="0021600036"'
tRp570
ag8
(g9
(S'S13'
I0
I1
tRp571
(I3
S'|'
NNNI13
I1
I0
tbS'="0021600244"'
tRp572
ag8
(g9
(S'S13'
I0
I1
tRp573
(I3
S'|'
NNNI13
I1
I0
tbS'="0021601108"'
tRp574
asg25
(lp575
F14.033333333333335
aF16.949999999999999
aF17.933333333333334
aF17.700000000000003
asg27
(lp576
F26.033333333333331
aF21.849999999999998
aF30.050000000000001
aF29.083333333333336
asg29
(lp577
I3
aI5
aI4
aI5
asg31
(lp578
g8
(g10
S'\x9b@\x89\xc1#\x98\x1f@'
tRp579
ag8
(g10
S'i\x80[\xd6\x17\x10\x05@'
tRp580
ag564
ag8
(g10
S'i\x80[\xd6\x17\x10\x05@'
tRp581
assg37
(dp582
g6
(lp583
g8
(g10
S"\xd8\x85'\xe4j\xdd\x06@"
tRp584
ag8
(g10
S'\x08\xcak(\xaf!\x01@'
tRp585
ag8
(g10
S'\xfe4\xc9\xa0\xf1\x1f9@'
tRp586
ag8
(g10
S'\x00\x00\x00\x00\x00\x00\x00\x00'
tRp587
ag8
(g10
S'\x90m\xbe\x1c`\x19\x13@'
tRp588
ag8
(g10
S'\x00\x95\xa2\x87\xbdQ\xdd?'
tRp589
asg15
(lp590
g8
(g9
(S'S13'
I0
I1
tRp591
(I3
S'|'
NNNI13
I1
I0
tbS'="0021600078"'
tRp592
ag8
(g9
(S'S13'
I0
I1
tRp593
(I3
S'|'
NNNI13
I1
I0
tbS'="0021600281"'
tRp594
ag8
(g9
(S'S13'
I0
I1
tRp595
(I3
S'|'
NNNI13
I1
I0
tbS'="0021600405"'
tRp596
ag8
(g9
(S'S13'
I0
I1
tRp597
(I3
S'|'
NNNI13
I1
I0
tbS'="0021600889"'
tRp598
ag8
(g9
(S'S13'
I0
I1
tRp599
(I3
S'|'
NNNI13
I1
I0
tbS'="0041600141"'
tRp600
ag8
(g9
(S'S13'
I0
I1
tRp601
(I3
S'|'
NNNI13
I1
I0
tbS'="0041600313"'
tRp602
asg25
(lp603
F7.8666666666666663
aF9.1166666666666671
aF8.8333333333333339
aF7.666666666666667
aF11.183333333333334
aF7.833333333333333
asg27
(lp604
F31.099999999999998
aF31.816666666666674
aF8.8333333333333339
aF34.183333333333337
aF29.183333333333337
aF33.5
asg29
(lp605
I3
aI4
aI3
aI3
aI5
aI3
asg31
(lp606
g584
ag585
ag8
(g10
S'\x9b@\x89\xc1#\x98\x1f@'
tRp607
ag587
ag8
(g10
S'i\x80[\xd6\x17\x10\x05@'
tRp608
ag589
assg79
(dp609
g6
(lp610
g8
(g10
S'\x84\\\xad\x0bO\x08\x17@'
tRp611
ag8
(g10
S'\xa8~\xcf-q*\x1c@'
tRp612
asg15
(lp613
g8
(g9
(S'S13'
I0
I1
tRp614
(I3
S'|'
NNNI13
I1
I0
tbS'="0021600792"'
tRp615
ag8
(g9
(S'S13'
I0
I1
tRp616
(I3
S'|'
NNNI13
I1
I0
tbS'="0021600906"'
tRp617
asg25
(lp618
F25.616666666666664
aF26.916666666666664
asg27
(lp619
F28.199999999999999
aF26.916666666666664
asg29
(lp620
I4
aI4
asg31
(lp621
g8
(g10
S'i\x80[\xd6\x17\x10\x15@'
tRp622
ag8
(g10
S'i\x80[\xd6\x17\x10\x15@'
tRp623
asssS'Isaiah Thomas'
p624
(dp625
g4
(dp626
g6
(lp627
g8
(g10
S'r\xc6)L\x89\xd9$@'
tRp628
ag8
(g10
S'\xe0\x88\xa3\xb6\x9f!\xf8?'
tRp629
asg15
(lp630
g8
(g9
(S'S13'
I0
I1
tRp631
(I3
S'|'
NNNI13
I1
I0
tbS'="0021600130"'
tRp632
ag8
(g9
(S'S13'
I0
I1
tRp633
(I3
S'|'
NNNI13
I1
I0
tbS'="0021600929"'
tRp634
asg25
(lp635
F11.349999999999998
aF15.416666666666668
asg27
(lp636
F23.349999999999998
aF32.266666666666666
asg29
(lp637
I4
aI4
asg31
(lp638
g8
(g10
S'\xc7\xd7+\xde\xa4M\x12@'
tRp639
ag629
assg37
(dp640
g6
(lp641
g8
(g10
S'\x00\x00\x00\x00\x00\x00\x00\x00'
tRp642
asg15
(lp643
g8
(g9
(S'S13'
I0
I1
tRp644
(I3
S'|'
NNNI13
I1
I0
tbS'="0021600283"'
tRp645
asg25
(lp646
F11.316666666666666
asg27
(lp647
F34.483333333333327
asg29
(lp648
I4
asg31
(lp649
g642
assg79
(dp650
g6
(lp651
g8
(g10
S'@\x93\xf6\x18V&"@'
tRp652
ag8
(g10
S'\x00\x00\x00\x00\x00\x00\x00\x00'
tRp653
asg15
(lp654
g8
(g9
(S'S13'
I0
I1
tRp655
(I3
S'|'
NNNI13
I1
I0
tbS'="0021600697"'
tRp656
ag8
(g9
(S'S13'
I0
I1
tRp657
(I3
S'|'
NNNI13
I1
I0
tbS'="0021600970"'
tRp658
asg25
(lp659
F24.699999999999996
aF27.550000000000004
asg27
(lp660
F24.699999999999996
aF33.933333333333337
asg29
(lp661
I4
aI5
asg31
(lp662
g8
(g10
S'\xc7\xd7+\xde\xa4M\x12@'
tRp663
ag653
asssS'Kawhi Leonard'
p664
(dp665
g4
(dp666
g6
(lp667
g8
(g10
S'\xa8\rt\xda@g&@'
tRp668
ag8
(g10
S't\xda@\xa7\r4&@'
tRp669
asg15
(lp670
g8
(g9
(S'S13'
I0
I1
tRp671
(I3
S'|'
NNNI13
I1
I0
tbS'="0021600016"'
tRp672
ag8
(g9
(S'S13'
I0
I1
tRp673
(I3
S'|'
NNNI13
I1
I0
tbS'="0021600037"'
tRp674
asg25
(lp675
F12.866666666666665
aF13.200000000000003
asg27
(lp676
F22.916666666666664
aF23.016666666666666
asg29
(lp677
I5
aI3
asg31
(lp678
g8
(g10
S'TFd\xbc\x91\xe9\t@'
tRp679
ag8
(g10
S'\xbe4KM-o#@'
tRp680
assg37
(dp681
g6
(lp682
g8
(g10
S'P\xf2\x8b%\xbfX\x0f@'
tRp683
asg15
(lp684
g8
(g9
(S'S13'
I0
I1
tRp685
(I3
S'|'
NNNI13
I1
I0
tbS'="0041600153"'
tRp686
asg25
(lp687
F7.5499999999999998
asg27
(lp688
F30.200000000000003
asg29
(lp689
I2
asg31
(lp690
g683
assg79
(dp691
g6
(lp692
g8
(g10
S'\x80\x14\xaeG\xe1z\x0f@'
tRp693
ag8
(g10
S'\xc8\x92_,\xf9E\x1a@'
tRp694
asg15
(lp695
g8
(g9
(S'S13'
I0
I1
tRp696
(I3
S'|'
NNNI13
I1
I0
tbS'="0021600625"'
tRp697
ag8
(g9
(S'S13'
I0
I1
tRp698
(I3
S'|'
NNNI13
I1
I0
tbS'="0021600902"'
tRp699
asg25
(lp700
F30.18333333333333
aF27.549999999999997
asg27
(lp701
F30.18333333333333
aF27.549999999999997
asg29
(lp702
I4
aI4
asg31
(lp703
g693
ag8
(g10
S'TFd\xbc\x91\xe9\x19@'
tRp704
asssS'Rudy Gobert'
p705
(dp706
g4
(dp707
g6
(lp708
g8
(g10
S"vtttt\xf4'@"
tRp709
aI0
ag8
(g10
S'\x00\xe8\xe7\xe7\xe7\xe7\xfb?'
tRp710
ag8
(g10
S'TRRRRR!@'
tRp711
ag8
(g10
S'\x90\x93\x93\x93\x93\x93\x1c@'
tRp712
ag8
(g10
S'\x98\x93\x93\x93\x93\x93\x1f@'
tRp713
ag8
(g10
S'DAAAAA+@'
tRp714
ag8
(g10
S'\x84\x85\x85\x85\x85\x85%@'
tRp715
asg15
(lp716
g8
(g9
(S'S13'
I0
I1
tRp717
(I3
S'|'
NNNI13
I1
I0
tbS'="0021600062"'
tRp718
ag8
(g9
(S'S13'
I0
I1
tRp719
(I3
S'|'
NNNI13
I1
I0
tbS'="0021600093"'
tRp720
ag8
(g9
(S'S13'
I0
I1
tRp721
(I3
S'|'
NNNI13
I1
I0
tbS'="0021600136"'
tRp722
ag8
(g9
(S'S13'
I0
I1
tRp723
(I3
S'|'
NNNI13
I1
I0
tbS'="0021600197"'
tRp724
ag8
(g9
(S'S13'
I0
I1
tRp725
(I3
S'|'
NNNI13
I1
I0
tbS'="0021600556"'
tRp726
ag8
(g9
(S'S13'
I0
I1
tRp727
(I3
S'|'
NNNI13
I1
I0
tbS'="0021600576"'
tRp728
ag8
(g9
(S'S13'
I0
I1
tRp729
(I3
S'|'
NNNI13
I1
I0
tbS'="0021600903"'
tRp730
ag8
(g9
(S'S13'
I0
I1
tRp731
(I3
S'|'
NNNI13
I1
I0
tbS'="0021601185"'
tRp732
asg25
(lp733
F8.5999999999999979
aF14.083333333333334
aF15.250000000000004
aF9.7499999999999982
aF15.35
aF16.000000000000004
aF12.133333333333329
aF18.333333333333332
asg27
(lp734
F22.833333333333332
aF20.166666666666671
aF33.066666666666663
aF26.149999999999999
aF27.666666666666671
aF26.916666666666664
aF21.18333333333333
aF24.050000000000004
asg29
(lp735
I5
aI6
aI5
aI4
aI5
aI3
aI3
aI5
asg31
(lp736
g8
(g10
S'mE\xc4\xc1_\x13\x00@'
tRp737
aI0
ag710
ag8
(g10
S'mE\xc4\xc1_\x13\x10@'
tRp738
ag8
(g10
S'mE\xc4\xc1_\x13\x00@'
tRp739
ag8
(g10
S'&h\xa6\xa2\x0f\x1d\x18@'
tRp740
ag8
(g10
S'&h\xa6\xa2\x0f\x1d\x18@'
tRp741
ag8
(g10
S'mE\xc4\xc1_\x13\x00@'
tRp742
assg37
(dp743
g6
(lp744
g8
(g10
S'bccccc!@'
tRp745
asg15
(lp746
g8
(g9
(S'S13'
I0
I1
tRp747
(I3
S'|'
NNNI13
I1
I0
tbS'="0021600035"'
tRp748
asg25
(lp749
F5.8833333333333337
asg27
(lp750
F26.116666666666671
asg29
(lp751
I3
asg31
(lp752
g8
(g10
S'&h\xa6\xa2\x0f\x1d\x18@'
tRp753
assg79
(dp754
g6
(lp755
g8
(g10
S'\xdc\xda\xda\xda\xda\xda)@'
tRp756
aI0
asg15
(lp757
g8
(g9
(S'S13'
I0
I1
tRp758
(I3
S'|'
NNNI13
I1
I0
tbS'="0021600151"'
tRp759
ag8
(g9
(S'S13'
I0
I1
tRp760
(I3
S'|'
NNNI13
I1
I0
tbS'="0041600222"'
tRp761
asg25
(lp762
F20.116666666666667
aF24.866666666666667
asg27
(lp763
F21.883333333333333
aF24.866666666666664
asg29
(lp764
I5
aI6
asg31
(lp765
g8
(g10
S'mE\xc4\xc1_\x13\x00@'
tRp766
aI0
asssS'Giannis Antetokounmpo'
p767
(dp768
g4
(dp769
g6
(lp770
g8
(g10
S"\x1c\xfb\xb1\x1f\xfb\xc1'@"
tRp771
ag8
(g10
S'>\x1d\xd4A\x1dd&@'
tRp772
ag8
(g10
S'Fx\x8c-\x07\xdb&@'
tRp773
ag8
(g10
S'\xea\xc7~\xec\xc7\x8e%@'
tRp774
aI0
ag8
(g10
S'P.\xe5R.u%@'
tRp775
ag8
(g10
S'\xb8m\xdb\xb6m\xfb\x15@'
tRp776
asg15
(lp777
g8
(g9
(S'S13'
I0
I1
tRp778
(I3
S'|'
NNNI13
I1
I0
tbS'="0021600085"'
tRp779
ag8
(g9
(S'S13'
I0
I1
tRp780
(I3
S'|'
NNNI13
I1
I0
tbS'="0021600291"'
tRp781
ag8
(g9
(S'S13'
I0
I1
tRp782
(I3
S'|'
NNNI13
I1
I0
tbS'="0021600340"'
tRp783
ag8
(g9
(S'S13'
I0
I1
tRp784
(I3
S'|'
NNNI13
I1
I0
tbS'="0021600548"'
tRp785
ag8
(g9
(S'S13'
I0
I1
tRp786
(I3
S'|'
NNNI13
I1
I0
tbS'="0021600615"'
tRp787
ag8
(g9
(S'S13'
I0
I1
tRp788
(I3
S'|'
NNNI13
I1
I0
tbS'="0021600860"'
tRp789
ag8
(g9
(S'S13'
I0
I1
tRp790
(I3
S'|'
NNNI13
I1
I0
tbS'="0021600912"'
tRp791
asg25
(lp792
F15.950000000000003
aF17.266666666666666
aF10.566666666666663
aF16.766666666666669
aF18.633333333333333
aF14.216666666666667
aF12.716666666666669
asg27
(lp793
F25.06666666666667
aF25.750000000000004
aF20.36666666666666
aF26.166666666666668
aF28.866666666666664
aF26.216666666666669
aF31.449999999999996
asg29
(lp794
I3
aI4
aI5
aI4
aI6
aI4
aI4
asg31
(lp795
g8
(g10
S'\xbcH\x05\x05?\xd8\x14@'
tRp796
ag8
(g10
S'\xf7`\\\xb1\xfe\xca\x0b@'
tRp797
ag8
(g10
S'\xf7`\\\xb1\xfe\xca\xfb?'
tRp798
ag8
(g10
S'\xf7`\\\xb1\xfe\xca\x0b@'
tRp799
aI0
ag8
(g10
S'\xf7`\\\xb1\xfe\xca\x0b@'
tRp800
ag8
(g10
S'\xf7`\\\xb1\xfe\xca\x0b@'
tRp801
assg37
(dp802
g6
(lp803
g8
(g10
S'@\x1d\xd4A\x1d\xe4%@'
tRp804
ag8
(g10
S'\x84:\xa8\x83:\xc8\x13@'
tRp805
ag8
(g10
S'@\xb9\x94K\xb9\xd4\r@'
tRp806
ag8
(g10
S'N.\xe5R.\xf5!@'
tRp807
ag8
(g10
S'`?\xf6c?\x86-@'
tRp808
asg15
(lp809
g8
(g9
(S'S13'
I0
I1
tRp810
(I3
S'|'
NNNI13
I1
I0
tbS'="0021600232"'
tRp811
ag8
(g9
(S'S13'
I0
I1
tRp812
(I3
S'|'
NNNI13
I1
I0
tbS'="0021600497"'
tRp813
ag8
(g9
(S'S13'
I0
I1
tRp814
(I3
S'|'
NNNI13
I1
I0
tbS'="0021600698"'
tRp815
ag8
(g9
(S'S13'
I0
I1
tRp816
(I3
S'|'
NNNI13
I1
I0
tbS'="0021600993"'
tRp817
ag8
(g9
(S'S13'
I0
I1
tRp818
(I3
S'|'
NNNI13
I1
I0
tbS'="0021601013"'
tRp819
asg25
(lp820
F7.9666666666666668
aF9.4499999999999993
aF5.083333333333333
aF6.8666666666666663
aF7.4333333333333336
asg27
(lp821
F26
aF31.999999999999996
aF33.216666666666669
aF27.966666666666672
aF22.183333333333337
asg29
(lp822
I4
aI3
aI5
aI3
aI4
asg31
(lp823
g8
(g10
S'\xf7`\\\xb1\xfe\xca\x0b@'
tRp824
ag805
ag8
(g10
S'\xf7`\\\xb1\xfe\xca\xfb?'
tRp825
ag8
(g10
S'\xbcH\x05\x05?\xd8\x14@'
tRp826
ag8
(g10
S'\xf7`\\\xb1\xfe\xca\x0b@'
tRp827
assg79
(dp828
g6
(lp829
g8
(g10
S'`?\xf6c?\x86/@'
tRp830
ag8
(g10
S'\x00\x86a\x18\x86\xa1\x08@'
tRp831
ag8
(g10
S'T.\xe5R.\xf5%@'
tRp832
ag8
(g10
S'\x00\x00\x00\x00\x00\x00\x00\x00'
tRp833
asg15
(lp834
g8
(g9
(S'S13'
I0
I1
tRp835
(I3
S'|'
NNNI13
I1
I0
tbS'="0021600090"'
tRp836
ag8
(g9
(S'S13'
I0
I1
tRp837
(I3
S'|'
NNNI13
I1
I0
tbS'="0021600761"'
tRp838
ag8
(g9
(S'S13'
I0
I1
tRp839
(I3
S'|'
NNNI13
I1
I0
tbS'="0021600809"'
tRp840
ag8
(g9
(S'S13'
I0
I1
tRp841
(I3
S'|'
NNNI13
I1
I0
tbS'="0041600121"'
tRp842
asg25
(lp843
F16.983333333333334
aF25.000000000000004
aF25.966666666666661
aF28.100000000000001
asg27
(lp844
F21.183333333333337
aF33.866666666666674
aF25.966666666666661
aF38.333333333333336
asg29
(lp845
I4
aI4
aI5
aI4
asg31
(lp846
g8
(g10
S'\xf7`\\\xb1\xfe\xca\x0b@'
tRp847
ag831
ag8
(g10
S'\xf7`\\\xb1\xfe\xca\xfb?'
tRp848
ag833
asssS'Russell Westbrook'
p849
(dp850
g4
(dp851
g6
(lp852
sg15
(lp853
sg25
(lp854
sg27
(lp855
sg29
(lp856
sg31
(lp857
ssg37
(dp858
g6
(lp859
g8
(g10
S"l\x92\x16'iq\x1e@"
tRp860
ag8
(g10
S'\xe8\t\x8e\x9e\xe0\xe8\x1f@'
tRp861
ag8
(g10
S'\x08,\xb0\xc0\x02\x0b\x1b@'
tRp862
asg15
(lp863
g8
(g9
(S'S13'
I0
I1
tRp864
(I3
S'|'
NNNI13
I1
I0
tbS'="0021600126"'
tRp865
ag8
(g9
(S'S13'
I0
I1
tRp866
(I3
S'|'
NNNI13
I1
I0
tbS'="0021600341"'
tRp867
ag8
(g9
(S'S13'
I0
I1
tRp868
(I3
S'|'
NNNI13
I1
I0
tbS'="0021600770"'
tRp869
asg25
(lp870
F7.9333333333333336
aF8.5333333333333332
aF9.2333333333333343
asg27
(lp871
F27.350000000000005
aF26.983333333333334
aF28.200000000000003
asg29
(lp872
I5
aI3
aI3
asg31
(lp873
g8
(g10
S'>\xadX\x10\xf5]\x02@'
tRp874
ag8
(g10
S'\xde\x03\x85\x98\xef\x8c\x1b@'
tRp875
ag862
assg79
(dp876
g6
(lp877
sg15
(lp878
sg25
(lp879
sg27
(lp880
sg29
(lp881
sg31
(lp882
sssS'DeAndre Jordan'
p883
(dp884
g4
(dp885
g6
(lp886
g8
(g10
S'X\xd7*\x1b\x8e\x98\n@'
tRp887
ag8
(g10
S'\xe0\x03\xab\x8bq\x86\xf6?'
tRp888
ag8
(g10
S'\xe0\xf2\x99z`u\xf1?'
tRp889
ag8
(g10
S'\x88Is\xeb$*\x1e@'
tRp890
ag8
(g10
S'\x00\x00\x00\x00\x00\x00\x00\x00'
tRp891
asg15
(lp892
g8
(g9
(S'S13'
I0
I1
tRp893
(I3
S'|'
NNNI13
I1
I0
tbS'="0021600017"'
tRp894
ag8
(g9
(S'S13'
I0
I1
tRp895
(I3
S'|'
NNNI13
I1
I0
tbS'="0021600496"'
tRp896
ag8
(g9
(S'S13'
I0
I1
tRp897
(I3
S'|'
NNNI13
I1
I0
tbS'="0021600519"'
tRp898
ag8
(g9
(S'S13'
I0
I1
tRp899
(I3
S'|'
NNNI13
I1
I0
tbS'="0021601210"'
tRp900
ag8
(g9
(S'S13'
I0
I1
tRp901
(I3
S'|'
NNNI13
I1
I0
tbS'="0041600175"'
tRp902
asg25
(lp903
F16.883333333333336
aF13.933333333333332
aF16.549999999999997
aF14.099999999999998
aF20.733333333333334
asg27
(lp904
F28.199999999999996
aF30.116666666666671
aF30.433333333333334
aF23.983333333333331
aF42.116666666666667
asg29
(lp905
I5
aI3
aI3
aI4
aI4
asg31
(lp906
g8
(g10
S'\x8b\xbfG|p\x14\xfa?'
tRp907
ag888
ag889
ag8
(g10
S'\x8b\xbfG|p\x14\n@'
tRp908
ag891
assg37
(dp909
g6
(lp910
g8
(g10
S'~`u1\xce\xd0 @'
tRp911
ag8
(g10
S'\x18\xa4\xf7\xe7Ze\t@'
tRp912
ag8
(g10
S'\xa8k\x95\rGL\x11@'
tRp913
ag8
(g10
S'\x90\x1bo_\xd2\xdc\x06@'
tRp914
ag8
(g10
S'h\xf9L=\xb0\xba\n@'
tRp915
ag8
(g10
S'\x00\x00\x00\x00\x00\x00\x00\x00'
tRp916
ag8
(g10
S'\x00\x00\x00\x00\x00\x00\x00\x00'
tRp917
asg15
(lp918
g8
(g9
(S'S13'
I0
I1
tRp919
(I3
S'|'
NNNI13
I1
I0
tbS'="0021600355"'
tRp920
ag8
(g9
(S'S13'
I0
I1
tRp921
(I3
S'|'
NNNI13
I1
I0
tbS'="0021600406"'
tRp922
ag8
(g9
(S'S13'
I0
I1
tRp923
(I3
S'|'
NNNI13
I1
I0
tbS'="0021600658"'
tRp924
ag8
(g9
(S'S13'
I0
I1
tRp925
(I3
S'|'
NNNI13
I1
I0
tbS'="0021600675"'
tRp926
ag8
(g9
(S'S13'
I0
I1
tRp927
(I3
S'|'
NNNI13
I1
I0
tbS'="0021600808"'
tRp928
ag8
(g9
(S'S13'
I0
I1
tRp929
(I3
S'|'
NNNI13
I1
I0
tbS'="0021600912"'
tRp930
ag8
(g9
(S'S13'
I0
I1
tRp931
(I3
S'|'
NNNI13
I1
I0
tbS'="0041600176"'
tRp932
asg25
(lp933
F8.7166666666666668
aF10.183333333333334
aF9.9333333333333336
aF8.1833333333333336
aF7.4500000000000002
aF9.4666666666666668
aF9.3833333333333329
asg27
(lp934
F23.116666666666667
aF28.350000000000001
aF27.199999999999999
aF28.666666666666668
aF28.183333333333337
aF32.116666666666667
aF36.849999999999994
asg29
(lp935
I4
aI2
aI5
aI3
aI3
aI4
aI5
asg31
(lp936
g8
(g10
S'\x8b\xbfG|p\x14\n@'
tRp937
ag912
ag8
(g10
S'\x8b\xbfG|p\x14\xfa?'
tRp938
ag914
ag915
ag916
ag917
assg79
(dp939
g6
(lp940
g8
(g10
S'\x80\x85\xbe\xc3\xf2\x99\xca?'
tRp941
ag8
(g10
S'X\xe8;,\x9f\xa9\x0f@'
tRp942
ag8
(g10
S'\xe4\xc6\xdb\x974\xb7!@'
tRp943
ag8
(g10
S'\xe2\xc6\xdb\x9747 @'
tRp944
ag8
(g10
S'\xb8|\xa6\x1eX]\x17@'
tRp945
aI0
asg15
(lp946
g8
(g9
(S'S13'
I0
I1
tRp947
(I3
S'|'
NNNI13
I1
I0
tbS'="0021600045"'
tRp948
ag8
(g9
(S'S13'
I0
I1
tRp949
(I3
S'|'
NNNI13
I1
I0
tbS'="0021600183"'
tRp950
ag8
(g9
(S'S13'
I0
I1
tRp951
(I3
S'|'
NNNI13
I1
I0
tbS'="0021600739"'
tRp952
ag8
(g9
(S'S13'
I0
I1
tRp953
(I3
S'|'
NNNI13
I1
I0
tbS'="0021600791"'
tRp954
ag8
(g9
(S'S13'
I0
I1
tRp955
(I3
S'|'
NNNI13
I1
I0
tbS'="0021601082"'
tRp956
ag8
(g9
(S'S13'
I0
I1
tRp957
(I3
S'|'
NNNI13
I1
I0
tbS'="0041600172"'
tRp958
asg25
(lp959
F27.050000000000004
aF27.56666666666667
aF22.666666666666671
aF23.416666666666671
aF25.683333333333337
aF27.966666666666669
asg27
(lp960
F31.31666666666667
aF27.56666666666667
aF22.666666666666668
aF23.416666666666671
aF25.683333333333334
aF34.5
asg29
(lp961
I5
aI5
aI4
aI4
aI4
aI6
asg31
(lp962
g941
ag8
(g10
S'\x8b\xbfG|p\x14\xfa?'
tRp963
ag8
(g10
S'\x8b\xbfG|p\x14\n@'
tRp964
ag8
(g10
S'\x8b\xbfG|p\x14\n@'
tRp965
ag8
(g10
S'\x8b\xbfG|p\x14\n@'
tRp966
aI0
asssS'Kyle Lowry'
p967
(dp968
g4
(dp969
g6
(lp970
g8
(g10
S'033333+@'
tRp971
ag8
(g10
S'\xc0\xcc\xcc\xcc\xcc\xcc\n@'
tRp972
asg15
(lp973
g8
(g9
(S'S13'
I0
I1
tRp974
(I3
S'|'
NNNI13
I1
I0
tbS'="0021600042"'
tRp975
ag8
(g9
(S'S13'
I0
I1
tRp976
(I3
S'|'
NNNI13
I1
I0
tbS'="0041600121"'
tRp977
asg25
(lp978
F14.733333333333334
aF14.383333333333336
asg27
(lp979
F23.616666666666667
aF33.866666666666667
asg29
(lp980
I4
aI4
asg31
(lp981
g8
(g10
S'\xbb%\x90\x1d\xc2\x15\r@'
tRp982
ag972
assg37
(dp983
g6
(lp984
g8
(g10
S'\x0e\x11\x11\x11\x11\x91*@'
tRp985
ag8
(g10
S'@\x99\x99\x99\x99\x99\xe9?'
tRp986
asg15
(lp987
g8
(g9
(S'S13'
I0
I1
tRp988
(I3
S'|'
NNNI13
I1
I0
tbS'="0021601180"'
tRp989
ag8
(g9
(S'S13'
I0
I1
tRp990
(I3
S'|'
NNNI13
I1
I0
tbS'="0041600125"'
tRp991
asg25
(lp992
F7.416666666666667
aF8.8833333333333329
asg27
(lp993
F23.933333333333334
aF36.416666666666671
asg29
(lp994
I4
aI4
asg31
(lp995
g8
(g10
S'\xbb%\x90\x1d\xc2\x15\r@'
tRp996
ag986
assg79
(dp997
g6
(lp998
sg15
(lp999
sg25
(lp1000
sg27
(lp1001
sg29
(lp1002
sg31
(lp1003
sssS'Anthony Davis'
p1004
(dp1005
g4
(dp1006
g6
(lp1007
g8
(g10
S"T\xee\xab0'\xba\x19@"
tRp1008
ag8
(g10
S'\x1a\xe6D\x87\x02L$@'
tRp1009
asg15
(lp1010
g8
(g9
(S'S13'
I0
I1
tRp1011
(I3
S'|'
NNNI13
I1
I0
tbS'="0021600412"'
tRp1012
ag8
(g9
(S'S13'
I0
I1
tRp1013
(I3
S'|'
NNNI13
I1
I0
tbS'="0021600433"'
tRp1014
asg25
(lp1015
F18.533333333333335
aF16.049999999999997
asg27
(lp1016
F29.683333333333334
aF25.966666666666665
asg29
(lp1017
I4
aI5
asg31
(lp1018
g8
(g10
S'\xe3t\xe7\xb5f\t\x14@'
tRp1019
ag8
(g10
S'\xe3t\xe7\xb5f\t\x04@'
tRp1020
assg37
(dp1021
g6
(lp1022
g8
(g10
S'\xdcv4\xb9\xafB\x17@'
tRp1023
ag8
(g10
S'L\x19x\xba5\x7f&@'
tRp1024
asg15
(lp1025
g8
(g9
(S'S13'
I0
I1
tRp1026
(I3
S'|'
NNNI13
I1
I0
tbS'="0021600481"'
tRp1027
ag8
(g9
(S'S13'
I0
I1
tRp1028
(I3
S'|'
NNNI13
I1
I0
tbS'="0021600539"'
tRp1029
asg25
(lp1030
F10.1
aF8.6666666666666661
asg27
(lp1031
F30.300000000000001
aF24.866666666666667
asg29
(lp1032
I4
aI5
asg31
(lp1033
g8
(g10
S'\xe3t\xe7\xb5f\t\x14@'
tRp1034
ag8
(g10
S'\xe3t\xe7\xb5f\t\x04@'
tRp1035
assg79
(dp1036
g6
(lp1037
g8
(g10
S'h\xff\xbcA8\xcb\x15@'
tRp1038
ag8
(g10
S'\x00\x00\x00\x00\x00\x00\x00\x00'
tRp1039
ag8
(g10
S'\xf8\xc3"e\xe0)"@'
tRp1040
ag8
(g10
S"\xb2\x7f\xde \x9ce'@"
tRp1041
asg15
(lp1042
g8
(g9
(S'S13'
I0
I1
tRp1043
(I3
S'|'
NNNI13
I1
I0
tbS'="0021600060"'
tRp1044
ag8
(g9
(S'S13'
I0
I1
tRp1045
(I3
S'|'
NNNI13
I1
I0
tbS'="0021600359"'
tRp1046
ag8
(g9
(S'S13'
I0
I1
tRp1047
(I3
S'|'
NNNI13
I1
I0
tbS'="0021600645"'
tRp1048
ag8
(g9
(S'S13'
I0
I1
tRp1049
(I3
S'|'
NNNI13
I1
I0
tbS'="0021600880"'
tRp1050
asg25
(lp1051
F25.18333333333333
aF27.199999999999999
aF27.033333333333331
aF24.416666666666671
asg27
(lp1052
F30.666666666666664
aF39.200000000000003
aF27.033333333333331
aF24.416666666666668
asg29
(lp1053
I4
aI4
aI4
aI4
asg31
(lp1054
g8
(g10
S'\xe3t\xe7\xb5f\t\x14@'
tRp1055
ag1039
ag8
(g10
S'\xe3t\xe7\xb5f\t\x14@'
tRp1056
ag8
(g10
S'\xe3t\xe7\xb5f\t\x14@'
tRp1057
asss.