(dp1
S'Hassan Whiteside'
p2
(dp3
S'Clean_fpm'
p4
(lp5
F0.10652463382157125
aF0.065430752453653221
aF0.081117620549797223
aF0.061099796334012219
aF0.088495575221238937
aF0.078878177037686251
aF0.10029251984956124
aF0.027459954233409606
aF0.07978723404255321
aF0.1399906672888474
aF0
aF0.079505300353356886
aF0.053475935828877004
aF0.057581573896353162
aF0
aF0.064205457463884438
aF0.081081081081081086
aF0.031779661016949151
aF0.098955470038482679
aF0.097087378640776698
aF0.0686106346483705
aF0.033204205866076364
aF0.037336652146857496
aF0.055813953488372092
aF0.11251758087201123
aF0
aF0.026098303610265331
aF0.045214770158251698
aF0
aF0.082606700321248269
aF0.028261893546867641
aF0.091047040971168433
aF0.059200789343857918
aF0.091185410334346503
aF0.066042927903137039
aF0.099833610648918478
aF0.090316106372303057
aF0.053404539385847806
aF0.1305057096247961
asS'FPG'
p6
cnumpy.core.multiarray
scalar
p7
(cnumpy
dtype
p8
(S'f8'
I0
I1
tRp9
(I3
S'<'
NNNI-1
I-1
I0
tbS'\xe2\xac\xfc\x848+\x07@'
tRp10
sS'CleanFPG'
p11
g7
(g9
S'B\x1a\xa4A\x1a\xa4\x01@'
tRp12
sS'Dirty_fouls'
p13
(lp14
I3
aI4
aI2
aI5
aI3
aI5
aI2
aI6
aI4
aI4
aI3
aI1
aI3
aI5
aI3
aI4
aI4
aI3
aI4
aI4
aI2
aI5
aI6
aI3
aI4
aI3
aI4
aI2
aI2
aI4
aI5
aI4
aI4
aI4
aI4
aI3
aI5
aI1
asS'DirtyFPG'
p15
g7
(g9
S'y\r\xe55\x94\xd7\x0c@'
tRp16
sS'min0'
p17
(lp18
F28.766666666666673
aF27.016666666666666
asS'min1'
p19
(lp20
F30.983333333333334
aF26.833333333333329
aF34.949999999999996
aF29.433333333333334
aF32.81666666666667
aF24.983333333333334
aF34.316666666666663
aF36.850000000000001
aF33.68333333333333
aF30.716666666666669
aF32.833333333333336
aF28.766666666666673
aF31.416666666666671
aF24.583333333333332
aF31.483333333333327
aF30.966666666666665
asS'min2'
p21
(lp22
F35.216666666666669
aF27.016666666666666
asS'min3'
p23
(lp24
F26.833333333333329
aF22.749999999999993
aF29.433333333333334
aF32.81666666666667
aF31
aF34.06666666666667
aF25.066666666666666
aF33.600000000000001
aF31.383333333333336
asS'min4'
p25
(lp26
F26.833333333333329
aF22.749999999999993
aF26.849999999999998
aF34.633333333333326
aF28.350000000000001
asS'min5'
p27
(lp28
F36.850000000000001
aF32.100000000000001
aF32.68333333333333
aF30.716666666666669
aF35.499999999999993
aF33.516666666666666
aF35.216666666666669
aF30.800000000000004
aF30.25
aF33.600000000000001
asS'min6'
p29
(lp30
F22.749999999999993
aF37.283333333333331
aF25.066666666666666
aF27.016666666666666
asS'min7'
p31
(lp32
F32.81666666666667
aF26.849999999999998
aF40.916666666666671
aF28.249999999999996
aF35.700000000000003
aF35.499999999999993
aF30.133333333333333
aF30.800000000000004
asS'Clean_fouls'
p33
(lp34
I4
aI2
aI3
aI2
aI3
aI3
aI4
aI1
aI3
aI5
aI0
aI3
aI2
aI2
aI0
aI2
aI3
aI1
aI3
aI2
aI2
aI1
aI1
aI2
aI4
aI0
aI1
aI1
aI0
aI3
aI1
aI3
aI2
aI3
aI2
aI3
aI3
aI2
aI4
asS'MPG'
p35
g7
(g9
S';\xfc\xda\x0cB2@@'
tRp36
sS'Dirty_mins'
p37
(lp38
F30.983333333333334
aF26.833333333333329
aF34.949999999999996
aF22.749999999999993
aF29.433333333333334
aF32.81666666666667
aF24.983333333333334
aF26.849999999999998
aF34.316666666666663
aF36.850000000000001
aF32.100000000000001
aF40.916666666666671
aF28.249999999999996
aF32.68333333333333
aF33.68333333333333
aF30.716666666666669
aF37.283333333333331
aF35.700000000000003
aF31
aF32.833333333333336
aF28.766666666666673
aF35.499999999999993
aF30.133333333333333
aF34.06666666666667
aF25.066666666666666
aF33.516666666666666
aF31.416666666666671
aF24.583333333333332
aF34.633333333333326
aF35.216666666666669
aF30.800000000000004
aF31.483333333333327
aF30.25
aF28.350000000000001
aF33.600000000000001
aF31.383333333333336
aF27.016666666666666
aF30.966666666666665
asS'CleanMPG'
p39
g7
(g9
S'\xfd\xc0\x0f\xfc\xc0\xaf@@'
tRp40
sS'Clean_mins'
p41
(lp42
F37.549999999999997
aF30.566666666666663
aF36.983333333333327
aF32.733333333333334
aF33.899999999999999
aF38.033333333333331
aF39.883333333333326
aF36.416666666666671
aF37.599999999999994
aF35.716666666666669
aF33.599999999999994
aF37.733333333333334
aF37.399999999999999
aF34.733333333333334
aF32.166666666666671
aF31.149999999999999
aF37
aF31.466666666666665
aF30.316666666666666
aF20.600000000000001
aF29.149999999999999
aF30.116666666666674
aF26.783333333333335
aF35.833333333333336
aF35.550000000000004
aF36.983333333333327
aF38.31666666666667
aF22.116666666666667
aF28.166666666666668
aF36.31666666666667
aF35.383333333333333
aF32.950000000000003
aF33.783333333333331
aF32.899999999999999
aF30.283333333333331
aF30.049999999999997
aF33.216666666666669
aF37.449999999999996
aF30.649999999999999
asS'Dirty_fpm'
p43
(lp44
F0.09682625067240451
aF0.14906832298136649
aF0.057224606580829764
aF0.21978021978021986
aF0.10192525481313704
aF0.15236160487557135
aF0.080053368912608405
aF0.223463687150838
aF0.11656143759106363
aF0.10854816824966078
aF0.093457943925233641
aF0.024439918533604884
aF0.10619469026548674
aF0.15298317185109639
aF0.089064819396338452
aF0.13022246337493218
aF0.10728654447921324
aF0.084033613445378144
aF0.12903225806451613
aF0.12182741116751268
aF0.069524913093858623
aF0.14084507042253525
aF0.19911504424778761
aF0.088062622309197647
aF0.15957446808510639
aF0.089507707608155143
aF0.12732095490716178
aF0.081355932203389839
aF0.057747834456207903
aF0.11358258400378608
aF0.16233766233766231
aF0.12705134992059294
aF0.13223140495867769
aF0.14109347442680775
aF0.11904761904761904
aF0.09559214020180562
aF0.18507094386181369
aF0.032292787944025833
asS'DirtyMPG'
p45
g7
(g9
S'-<!W\xebb?@'
tRp46
ssS'Nikola Jokic'
p47
(dp48
g4
(lp49
F0.19280205655526989
aF0.15530629853321828
aF0.14400000000000002
aF0.054151624548736454
aF0.11516314779270631
aF0.064516129032258063
aF0.12499999999999996
aF0.036363636363636362
aF0.1139240506329114
aF0.026292725679228742
aF0.033112582781456949
aF0.055788005578800558
aF0.053191489361702128
aF0.085227272727272721
aF0
aF0.054520672421626538
aF0.053120849933598939
aF0.083333333333333329
aF0.089999999999999997
aF0.030549898167006109
aF0.033688938798427839
aF0.030379746835443033
aF0.14897579143389197
aF0.033112582781456949
aF0.083275503122831357
aF0.065753424657534254
aF0.11121408711770157
aF0.1091901728844404
aF0.056818181818181823
aF0.059701492537313432
aF0.034403669724770644
asg6
g7
(g9
S'\xbas\xe7\xce\x9d;\x07@'
tRp50
sg11
g7
(g9
S'\x8c1\xc6\x18c\x8c\x01@'
tRp51
sg13
(lp52
I4
aI5
aI4
aI3
aI3
aI2
aI4
aI3
aI1
aI3
aI4
aI3
aI1
aI5
aI5
aI3
aI6
aI4
aI3
aI5
aI2
aI3
aI2
aI3
aI3
aI5
aI2
aI3
aI5
aI4
aI5
aI3
aI4
aI5
aI3
aI2
aI2
aI3
aI3
aI5
aI2
aI4
asg15
g7
(g9
S'\xdb\xb6m\xdb\xb6m\x0b@'
tRp53
sg17
(lp54
F14.43333333333333
aF22.250000000000004
aF24.400000000000006
aF14.783333333333335
asg19
(lp55
F21.133333333333336
aF18.483333333333334
aF21.200000000000003
aF20.216666666666669
aF24.799999999999997
aF33.716666666666661
aF21.316666666666666
aF27.183333333333341
aF15.399999999999999
aF21.56666666666667
aF18.333333333333336
aF33.866666666666667
aF19.600000000000001
aF40.216666666666669
asg21
(lp56
F20.450000000000003
aF26.466666666666669
asg23
(lp57
F22.349999999999998
aF22.250000000000004
aF21.200000000000003
aF19.383333333333333
aF20.216666666666669
aF20.716666666666665
aF19.133333333333333
aF34.450000000000003
aF22.249999999999996
aF28.383333333333333
aF21.316666666666666
aF15.399999999999999
aF34.266666666666673
aF33.966666666666669
aF25.516666666666673
aF21.56666666666667
aF31.5
asg25
(lp58
F28.383333333333333
aF19.383333333333333
aF19.133333333333333
aF22.249999999999996
aF21.56666666666667
aF18.333333333333336
asg27
(lp59
F29.11666666666666
aF22.349999999999998
aF22.650000000000006
aF32.416666666666671
aF27.183333333333341
aF24.400000000000006
aF33.966666666666669
aF25.516666666666673
aF14.783333333333335
aF39.616666666666667
aF31.5
asg29
(lp60
F22.700000000000003
aF22.349999999999994
aF19.383333333333333
aF20.216666666666669
aF24.400000000000006
asg31
(lp61
F29.11666666666666
aF19.133333333333333
aF27.333333333333336
aF35.783333333333331
aF33.966666666666669
aF28.649999999999999
aF34.38333333333334
asg33
(lp62
I5
aI3
aI3
aI1
aI3
aI2
aI3
aI1
aI3
aI1
aI1
aI2
aI2
aI3
aI0
aI2
aI2
aI3
aI3
aI1
aI1
aI1
aI4
aI1
aI2
aI2
aI4
aI4
aI2
aI2
aI1
asg35
g7
(g9
S'\xc1o\xce\x8b\x06\xbc;@'
tRp63
sg37
(lp64
F21.133333333333336
aF29.11666666666666
aF22.349999999999998
aF14.43333333333333
aF22.700000000000003
aF22.250000000000004
aF28.383333333333333
aF18.483333333333334
aF20.450000000000003
aF22.349999999999994
aF22.650000000000006
aF21.200000000000003
aF26.466666666666669
aF19.383333333333333
aF20.216666666666669
aF20.716666666666665
aF19.133333333333333
aF32.416666666666671
aF34.450000000000003
aF22.249999999999996
aF24.799999999999997
aF28.383333333333333
aF27.333333333333336
aF33.716666666666661
aF21.316666666666666
aF27.183333333333341
aF35.783333333333331
aF15.399999999999999
aF24.400000000000006
aF34.266666666666673
aF33.966666666666669
aF25.516666666666673
aF14.783333333333335
aF21.56666666666667
aF39.616666666666667
aF28.649999999999999
aF34.38333333333334
aF18.333333333333336
aF33.866666666666667
aF31.5
aF19.600000000000001
aF40.216666666666669
asg39
g7
(g9
S'"\x84\x10B\x08\xa1>@'
tRp65
sg41
(lp66
F25.933333333333337
aF19.316666666666666
aF20.833333333333332
aF18.466666666666669
aF26.050000000000004
aF31
aF24.000000000000007
aF27.5
aF26.333333333333332
aF38.033333333333339
aF30.200000000000006
aF35.850000000000001
aF37.600000000000001
aF35.200000000000003
aF32.333333333333343
aF36.68333333333333
aF37.649999999999999
aF36
aF33.333333333333336
aF32.733333333333334
aF29.683333333333341
aF32.916666666666671
aF26.850000000000005
aF30.200000000000003
aF24.016666666666669
aF30.416666666666661
aF35.966666666666669
aF36.633333333333333
aF35.199999999999996
aF33.5
aF29.066666666666666
asg43
(lp67
F0.18927444794952678
aF0.17172295363480256
aF0.17897091722595079
aF0.2078521939953811
aF0.13215859030837002
aF0.089887640449438186
aF0.14092777451556077
aF0.16230838593327321
aF0.04889975550122249
aF0.13422818791946312
aF0.17660044150110371
aF0.14150943396226412
aF0.037783375314861457
aF0.25795356835769562
aF0.24732069249793898
aF0.14481094127111827
aF0.31358885017421606
aF0.12339331619537273
aF0.087082728592162553
aF0.22471910112359555
aF0.080645161290322592
aF0.10569583088667059
aF0.073170731707317069
aF0.088976767177459226
aF0.14073494917904614
aF0.18393623543838131
aF0.055891942244993019
aF0.19480519480519481
aF0.2049180327868852
aF0.1167315175097276
aF0.14720314033366044
aF0.11757021554539514
aF0.27057497181510709
aF0.231839258114374
aF0.075725704669751787
aF0.069808027923211169
aF0.058167716917110993
aF0.16363636363636361
aF0.088582677165354326
aF0.15873015873015872
aF0.1020408163265306
aF0.099461251554082045
asg45
g7
(g9
S'\x91\x17y\x91\x17\x999@'
tRp68
ssS'Damian Lillard'
p69
(dp70
g4
(lp71
F0.05502063273727649
aF0.11455847255369928
aF0.10786516853932586
aF0
aF0
aF0.026019080659150047
aF0.027945971122496509
aF0.084072863148061644
aF0.035629453681710214
aF0.02827521206409048
aF0.10652463382157125
aF0.049648324369052546
aF0.052654673102237821
aF0.058083252662149087
aF0.025597269624573378
aF0.13824884792626732
aF0.10884353741496598
aF0.05352363960749331
aF0.033296337402885678
aF0.033185840707964605
aF0.025974025974025976
aF0
aF0
aF0.095999999999999974
aF0.026905829596412554
aF0.035294117647058823
aF0
aF0.055452865064695003
aF0.028395646000946521
aF0.025316455696202531
aF0.02775208140610546
aF0.079016681299385425
aF0.082304526748971193
aF0.10092514718250631
aF0.055121727147450623
aF0.028901734104046249
aF0.056100981767180931
aF0.026455026455026457
aF0.055632823365785809
aF0
aF0
aF0.079155672823218989
aF0
aF0.027447392497712716
aF0
aF0.032555615843733052
aF0
aF0.098468271334792093
aF0.026132404181184669
aF0.026455026455026457
aF0.051129100979974432
aF0.058708414872798438
aF0.054669703872437352
aF0
aF0.050761421319796947
aF0.067453625632377737
asg6
g7
(g9
S'\xcf@T:\xb2g\x00@'
tRp72
sg11
g7
(g9
S'n\xdb\xb6m\xdb\xb6\xf9?'
tRp73
sg13
(lp74
I3
aI6
aI3
aI4
aI3
aI3
aI3
aI3
aI2
aI3
aI3
aI1
aI3
aI3
aI5
aI3
aI2
aI5
aI1
aI2
aI3
aI3
aI5
asg15
g7
(g9
S'\x91\x85,d!\x0b\t@'
tRp75
sg17
(lp76
sg19
(lp77
F32.899999999999999
aF35.933333333333337
aF39.583333333333329
aF30.75
aF34.633333333333333
asg21
(lp78
F32.316666666666663
asg23
(lp79
F35.433333333333337
aF32.366666666666667
aF30.75
asg25
(lp80
sg27
(lp81
F36.983333333333334
aF32.899999999999999
aF27.783333333333335
aF35.216666666666676
aF30.833333333333332
aF39.583333333333329
asg29
(lp82
F31.566666666666666
aF31.100000000000001
aF44.733333333333334
asg31
(lp83
F36.183333333333337
aF34.950000000000003
aF37.899999999999999
aF37.483333333333334
aF31.533333333333331
aF36.449999999999996
aF33.88333333333334
aF41.799999999999997
asg33
(lp84
I2
aI4
aI4
aI0
aI0
aI1
aI1
aI3
aI1
aI1
aI4
aI2
aI2
aI2
aI1
aI5
aI4
aI2
aI1
aI1
aI1
aI0
aI0
aI3
aI1
aI1
aI0
aI2
aI1
aI1
aI1
aI3
aI3
aI4
aI2
aI1
aI2
aI1
aI2
aI0
aI0
aI3
aI0
aI1
aI0
aI1
aI0
aI3
aI1
aI1
aI2
aI2
aI2
aI0
aI2
aI2
asg35
g7
(g9
S'\x86\xab&-\xcf\xc1A@'
tRp85
sg37
(lp86
F35.433333333333337
aF36.183333333333337
aF31.566666666666666
aF36.983333333333334
aF32.899999999999999
aF27.783333333333335
aF34.950000000000003
aF35.216666666666676
aF37.899999999999999
aF37.483333333333334
aF35.933333333333337
aF31.533333333333331
aF32.316666666666663
aF30.833333333333332
aF39.583333333333329
aF32.366666666666667
aF36.449999999999996
aF30.75
aF31.100000000000001
aF33.88333333333334
aF34.633333333333333
aF44.733333333333334
aF41.799999999999997
asg39
g7
(g9
S'\xaf\xf8\x8a\xaf\xf8\xe2A@'
tRp87
sg41
(lp88
F36.349999999999994
aF34.916666666666671
aF37.083333333333329
aF37.416666666666664
aF33.149999999999999
aF38.43333333333333
aF35.783333333333331
aF35.683333333333337
aF28.066666666666666
aF35.366666666666667
aF37.549999999999997
aF40.283333333333331
aF37.983333333333334
aF34.43333333333333
aF39.06666666666667
aF36.166666666666657
aF36.75
aF37.366666666666667
aF30.033333333333335
aF30.133333333333333
aF38.5
aF39.116666666666667
aF33.883333333333333
aF31.250000000000007
aF37.166666666666671
aF28.333333333333332
aF35.016666666666673
aF36.06666666666667
aF35.216666666666669
aF39.5
aF36.033333333333331
aF37.966666666666669
aF36.450000000000003
aF39.633333333333333
aF36.283333333333331
aF34.599999999999994
aF35.649999999999999
aF37.799999999999997
aF35.950000000000003
aF36.049999999999997
aF35.716666666666669
aF37.900000000000006
aF34.11666666666666
aF36.433333333333337
aF39.733333333333334
aF30.716666666666661
aF29.033333333333331
aF30.466666666666676
aF38.266666666666666
aF37.799999999999997
aF39.116666666666667
aF34.066666666666663
aF36.583333333333336
aF41.816666666666663
aF39.400000000000006
aF29.649999999999999
asg43
(lp89
F0.084666039510818428
aF0.16582220175034545
aF0.095036958817317843
aF0.10815682739972961
aF0.091185410334346503
aF0.10797840431913616
aF0.085836909871244635
aF0.085186938002839538
aF0.052770448548812667
aF0.080035571365051128
aF0.083487940630797772
aF0.031712473572938694
aF0.092831356369262513
aF0.097297297297297303
aF0.12631578947368421
aF0.092687950566426369
aF0.054869684499314134
aF0.16260162601626016
aF0.03215434083601286
aF0.059026069847515975
aF0.08662175168431184
aF0.067064083457526083
aF0.11961722488038279
asg45
g7
(g9
S'\x11\x11\x11\x11\x11qA@'
tRp90
ssS'Gordon Hayward'
p91
(dp92
g4
(lp93
F0.084388185654008449
aF0.082379862700228818
aF0.025369978858350947
aF0.02886002886002886
aF0.056074766355140179
aF0.044493882091212453
aF0.051612903225806452
aF0.09123162696401417
aF0.055970149253731345
aF0.032786885245901641
aF0.058679706601466999
aF0
aF0
aF0.054274084124830403
aF0.027803521779425393
aF0.085308056872037907
aF0.053380782918149461
aF0.075821398483572042
aF0.053050397877984094
aF0
aF0.031168831168831158
aF0.028832292167227297
aF0.028943560057887115
aF0.058309037900874626
aF0.029644268774703556
aF0.026702269692923903
aF0.037974683544303806
aF0.030864197530864199
aF0.0320855614973262
aF0.028011204481792715
aF0.028763183125599234
aF0
aF0
aF0.062337662337662331
aF0.027039206849932402
aF0
aF0.026121027427078801
aF0.053120849933598953
aF0
aF0.059701492537313418
aF0.08776206728425158
aF0.049751243781094523
aF0.030643513789581207
aF0.04002668445630421
aF0.028735632183908049
aF0.028182245185533108
aF0.055478502080443824
aF0.053571428571428575
aF0.04761904761904763
aF0.056127221702525723
aF0.059084194977843438
aF0.028846153846153841
aF0.027624309392265192
aF0
aF0.065395095367847419
aF0.060698027314112286
aF0.025199496010079796
aF0.084072863148061644
aF0
aF0.076890217855617254
aF0.065252854812398051
aF0.049792531120331947
aF0.025862068965517238
aF0.095124851367419744
aF0
aF0.098119378577269017
aF0.023734177215189878
aF0.094191522762951341
aF0.057915057915057917
aF0.09962640099626402
aF0
aF0.024370430544272952
asg6
g7
(g9
S'\x9e\xe7y\x9e\xe7y\xfa?'
tRp94
sg11
g7
(g9
S'\xab\xaa\xaa\xaa\xaa\xaa\xf8?'
tRp95
sg13
(lp96
I2
aI1
aI3
aI2
aI3
aI3
aI2
aI3
aI3
aI3
aI2
aI1
asg15
g7
(g9
S'\xab\xaa\xaa\xaa\xaa\xaa\x02@'
tRp97
sg17
(lp98
sg19
(lp99
F31.966666666666669
aF33.800000000000004
aF32.216666666666661
asg21
(lp100
sg23
(lp101
F26.949999999999996
aF33.233333333333334
aF30.449999999999999
aF22.699999999999999
asg25
(lp102
sg27
(lp103
F30.183333333333337
aF35.666666666666664
aF38.550000000000004
aF36.716666666666669
asg29
(lp104
sg31
(lp105
F31.850000000000001
asg33
(lp106
I3
aI3
aI1
aI1
aI2
aI2
aI2
aI3
aI2
aI1
aI2
aI0
aI0
aI2
aI1
aI3
aI2
aI3
aI2
aI0
aI1
aI1
aI1
aI2
aI1
aI1
aI1
aI1
aI1
aI1
aI1
aI0
aI0
aI2
aI1
aI0
aI1
aI2
aI0
aI2
aI3
aI2
aI1
aI1
aI1
aI1
aI2
aI2
aI1
aI2
aI2
aI1
aI1
aI0
aI2
aI2
aI1
aI3
aI0
aI3
aI2
aI2
aI1
aI4
aI0
aI4
aI1
aI4
aI2
aI4
aI0
aI1
asg35
g7
(g9
S'i\xa7vj\xa7^A@'
tRp107
sg37
(lp108
F30.183333333333337
aF35.666666666666664
aF31.966666666666669
aF31.850000000000001
aF26.949999999999996
aF33.800000000000004
aF32.216666666666661
aF38.550000000000004
aF33.233333333333334
aF30.449999999999999
aF36.716666666666669
aF22.699999999999999
asg39
g7
(g9
S'\n\xed%\xb4\x97\x98A@'
tRp109
sg41
(lp110
F35.549999999999997
aF36.416666666666671
aF39.416666666666671
aF34.649999999999999
aF35.666666666666671
aF44.950000000000003
aF38.75
aF32.88333333333334
aF35.733333333333334
aF30.5
aF34.083333333333329
aF36.266666666666666
aF40.31666666666667
aF36.849999999999994
aF35.966666666666669
aF35.166666666666671
aF37.466666666666669
aF39.566666666666663
aF37.699999999999996
aF34.100000000000001
aF32.083333333333343
aF34.68333333333333
aF34.550000000000004
aF34.300000000000004
aF33.733333333333334
aF37.449999999999996
aF26.333333333333329
aF32.399999999999999
aF31.166666666666671
aF35.700000000000003
aF34.766666666666666
aF32.033333333333331
aF36.316666666666663
aF32.083333333333336
aF36.983333333333334
aF26.283333333333331
aF38.283333333333331
aF37.649999999999991
aF29.150000000000002
aF33.500000000000007
aF34.183333333333337
aF40.200000000000003
aF32.633333333333333
aF24.983333333333327
aF34.799999999999997
aF35.483333333333341
aF36.050000000000004
aF37.333333333333329
aF20.999999999999996
aF35.633333333333333
aF33.849999999999994
aF34.666666666666671
aF36.200000000000003
aF39.13333333333334
aF30.583333333333329
aF32.950000000000003
aF39.683333333333337
aF35.683333333333337
aF34.616666666666674
aF39.016666666666666
aF30.649999999999995
aF40.166666666666671
aF38.666666666666671
aF42.049999999999997
aF9.1999999999999993
aF40.766666666666666
aF42.133333333333326
aF42.466666666666661
aF34.533333333333331
aF40.149999999999999
aF41.883333333333333
aF41.033333333333331
asg43
(lp111
F0.066261733848702362
aF0.028037383177570097
aF0.09384775808133472
aF0.062794348508634218
aF0.11131725417439704
aF0.088757396449704137
aF0.0620796689084325
aF0.077821011673151738
aF0.090270812437311929
aF0.098522167487684734
aF0.05447117566954153
aF0.04405286343612335
asg45
g7
(g9
S'\xaf\x05[\xb0\x05\x03@@'
tRp112
ssS'Isaiah Thomas'
p113
(dp114
g4
(lp115
F0.091416962925342821
aF0.0574988021082894
aF0.056845097110374235
aF0.083217753120665747
aF0.089330024813895778
aF0.091093117408906868
aF0.035971223021582739
aF0.082682590721175939
aF0.036231884057971023
aF0.027919962773382972
aF0.094093047569262914
aF0.031430068098480882
aF0.056179775280898889
aF0.086746987951807242
aF0
aF0.060271220492214964
aF0.060090135202804207
aF0.028585040495474036
aF0
aF0.12383900928792571
aF0.092024539877300623
aF0.089241447694595952
aF0.053835800807537013
aF0.084745762711864389
aF0.0526085050416484
aF0
aF0.026315789473684209
aF0.027573529411764705
aF0.032051282051282041
aF0
aF0.025951557093425608
aF0.085795996186844609
aF0.026269702276707534
aF0.084151472650771386
aF0.10743061772605195
aF0.079120879120879117
aF0.053073861123396723
aF0.02803738317757009
aF0.060362173038229362
aF0.026212319790301444
aF0.056791292001893041
aF0.058479532163742687
aF0.087762067284251594
aF0.032894736842105254
aF0.057803468208092471
aF0.038885288399222298
aF0
aF0.062695924764890304
aF0.086496876501681877
aF0.05747126436781607
aF0.054694621695533269
aF0.027409776153494745
aF0
aF0.030565461029037184
aF0.058083252662149087
aF0.13430330162283155
aF0
aF0.071798962903869168
aF0.031813361611876978
aF0.11688311688311689
aF0
aF0.075535039865715484
aF0.10268111808328578
aF0.057887120115774245
aF0.050293378038558247
aF0.052287581699346407
aF0.056872037914691934
asg6
g7
(g9
S'\xc2!\x1c\xc2!\x1c\x02@'
tRp116
sg11
g7
(g9
S'\x1b\x13\xe9\x81\xca\xd9\xfd?'
tRp117
sg13
(lp118
I4
aI4
aI2
aI4
aI1
aI3
aI1
aI4
aI4
aI3
aI4
aI3
aI4
aI4
aI3
aI5
aI4
aI2
aI3
aI3
aI5
aI2
aI4
aI5
asg15
g7
(g9
S'\x00\x00\x00\x00\x00\x00\x0b@'
tRp119
sg17
(lp120
sg19
(lp121
F34.483333333333327
aF32.483333333333334
aF33.933333333333337
asg21
(lp122
sg23
(lp123
F29.433333333333334
aF32.483333333333334
aF34.583333333333336
aF33.366666666666667
aF36.166666666666664
asg25
(lp124
F38.266666666666666
asg27
(lp125
F35.416666666666664
aF33.149999999999999
aF34.483333333333327
aF33.549999999999997
aF24.699999999999996
aF33.933333333333337
aF38
aF38.266666666666666
asg29
(lp126
sg31
(lp127
F27.833333333333343
aF34.299999999999997
aF34.616666666666667
aF33.966666666666669
aF35.133333333333333
aF34.833333333333336
aF34.816666666666663
aF34.583333333333336
aF32.716666666666669
aF34.899999999999999
aF38
aF31.100000000000001
aF38.699999999999996
asg33
(lp128
I3
aI2
aI2
aI3
aI3
aI3
aI1
aI3
aI1
aI1
aI3
aI1
aI2
aI3
aI0
aI2
aI2
aI1
aI0
aI4
aI3
aI3
aI2
aI3
aI2
aI0
aI1
aI1
aI1
aI0
aI1
aI3
aI1
aI3
aI4
aI3
aI2
aI1
aI2
aI1
aI2
aI2
aI3
aI1
aI2
aI1
aI0
aI2
aI3
aI2
aI2
aI1
aI0
aI1
aI2
aI4
aI0
aI3
aI1
aI3
aI0
aI3
aI3
aI2
aI2
aI2
aI1
asg35
g7
(g9
S'.\xfa\xa2/\xfa\xe2@@'
tRp129
sg37
(lp130
F35.416666666666664
aF29.433333333333334
aF33.149999999999999
aF34.483333333333327
aF27.833333333333343
aF34.299999999999997
aF33.549999999999997
aF34.616666666666667
aF24.699999999999996
aF33.966666666666669
aF35.133333333333333
aF34.833333333333336
aF32.483333333333334
aF34.816666666666663
aF34.583333333333336
aF33.933333333333337
aF33.366666666666667
aF32.716666666666669
aF34.899999999999999
aF38
aF38.266666666666666
aF36.166666666666664
aF31.100000000000001
aF38.699999999999996
asg39
g7
(g9
S'i>\xd7\x1f/\xe3@@'
tRp131
sg41
(lp132
F32.816666666666663
aF34.783333333333339
aF35.18333333333333
aF36.049999999999997
aF33.583333333333336
aF32.933333333333337
aF27.799999999999997
aF36.283333333333331
aF27.599999999999994
aF35.816666666666663
aF31.88333333333334
aF31.816666666666666
aF35.599999999999994
aF34.583333333333329
aF33.266666666666666
aF33.183333333333337
aF33.283333333333331
aF34.983333333333334
aF33.766666666666666
aF32.299999999999997
aF32.599999999999994
aF33.61666666666666
aF37.149999999999999
aF35.400000000000006
aF38.016666666666666
aF36.516666666666666
aF38
aF36.266666666666666
aF31.200000000000006
aF36.966666666666661
aF38.533333333333331
aF34.966666666666669
aF38.066666666666663
aF35.649999999999999
aF37.233333333333327
aF37.916666666666671
aF37.683333333333337
aF35.666666666666671
aF33.13333333333334
aF38.149999999999999
aF35.216666666666669
aF34.200000000000003
aF34.18333333333333
aF30.400000000000009
aF34.600000000000009
aF25.716666666666665
aF24.299999999999997
aF31.899999999999991
aF34.683333333333337
aF34.800000000000011
aF36.56666666666667
aF36.483333333333334
aF23.900000000000002
aF32.716666666666669
aF34.43333333333333
aF29.783333333333335
aF22.68333333333333
aF41.783333333333331
aF31.433333333333341
aF25.666666666666664
aF38.133333333333333
aF39.716666666666669
aF29.216666666666669
aF34.549999999999997
aF39.766666666666673
aF38.25
aF17.583333333333336
asg43
(lp133
F0.11294117647058824
aF0.13590033975084936
aF0.060331825037707391
aF0.11599806669888837
aF0.035928143712574835
aF0.087463556851311963
aF0.029806259314456039
aF0.11555127587867116
aF0.16194331983805671
aF0.088321884200196266
aF0.11385199240986718
aF0.08612440191387559
aF0.12314007183170857
aF0.11488750598372428
aF0.086746987951807228
aF0.1473477406679764
aF0.11988011988011987
aF0.061130922058074369
aF0.085959885386819493
aF0.078947368421052627
aF0.13066202090592335
aF0.055299539170506916
aF0.12861736334405144
aF0.12919896640826875
asg45
g7
(g9
S'gffff\xe2@@'
tRp134
ssS'Kevin Durant'
p135
(dp136
g4
(lp137
F0.052724077328646743
aF0.097719869706840407
aF0.028341993386868217
aF0
aF0.085106382978723402
aF0.053144375553587239
aF0.083604273107292154
aF0.030518819938962362
aF0
aF0.12000000000000002
aF0.026155187445510025
aF0.027472527472527472
aF0.030927835051546396
aF0.094191522762951327
aF0.055555555555555552
aF0.053691275167785234
aF0.030060120240480964
aF0.065075921908893705
aF0.059642147117296214
aF0.052401746724890834
aF0
aF0
aF0.058055152394775031
aF0.079964460239893384
aF0
aF0.027434842249657063
aF0
aF0
aF0.034403669724770651
aF0.051701852649719944
aF0.034863451481696686
aF0.055555555555555552
aF0
aF0
aF0.03259098316132536
aF0.061855670103092779
aF0.037476577139287939
aF0.03110419906687403
aF0.061287027579162413
aF0
aF0.096982758620689682
aF0.026821636119803309
aF0.036832412523020254
aF0.04903964037597057
aF0
aF0.064585575888051666
aF0.055555555555555552
aF0.10260795211628902
aF0.063761955366631248
aF0.075535039865715484
aF0.097959183673469383
aF0.048681541582150101
aF0.076335877862595408
asg6
g7
(g9
S'\xa2\xbc\x86\xf2\x1a\xca\xff?'
tRp138
sg11
g7
(g9
S'~\x0e\xa9\t\xc6[\xf9?'
tRp139
sg13
(lp140
I2
aI2
aI3
aI2
aI5
aI3
aI2
aI3
aI2
aI2
aI4
aI5
aI2
aI2
aI2
aI3
aI3
aI5
aI3
aI4
aI4
aI3
aI1
asg15
g7
(g9
S'\xf5\xa67\xbd\xe9M\x07@'
tRp141
sg17
(lp142
F36.466666666666669
asg19
(lp143
F30.916666666666664
aF24.733333333333327
aF36.583333333333329
aF33.749999999999986
aF35.333333333333329
aF30.033333333333335
asg21
(lp144
F36.599999999999994
aF39.100000000000001
aF39.133333333333333
aF37.033333333333331
asg23
(lp145
F31.133333333333333
aF35.966666666666669
aF24.733333333333327
aF37.200000000000003
asg25
(lp146
sg27
(lp147
F22.366666666666667
aF24.733333333333327
aF36.633333333333333
aF32.733333333333334
aF38.533333333333331
aF38.116666666666667
aF37.549999999999997
asg29
(lp148
F30.166666666666664
aF31.549999999999997
asg31
(lp149
F29.533333333333331
aF37.200000000000003
aF32.733333333333334
asg33
(lp150
I2
aI3
aI1
aI0
aI3
aI2
aI3
aI1
aI0
aI4
aI1
aI1
aI1
aI3
aI2
aI2
aI1
aI2
aI2
aI2
aI0
aI0
aI2
aI3
aI0
aI1
aI0
aI0
aI1
aI2
aI1
aI2
aI0
aI0
aI1
aI2
aI1
aI1
aI2
aI0
aI3
aI1
aI1
aI2
aI0
aI2
aI2
aI4
aI2
aI3
aI4
aI2
aI3
asg35
g7
(g9
S'\xcc6_\x0e\xb0\xe4@@'
tRp151
sg37
(lp152
F36.599999999999994
aF39.100000000000001
aF31.133333333333333
aF29.533333333333331
aF35.966666666666669
aF30.166666666666664
aF39.133333333333333
aF22.366666666666667
aF30.916666666666664
aF37.033333333333331
aF24.733333333333327
aF31.549999999999997
aF36.583333333333329
aF36.466666666666669
aF33.749999999999986
aF36.633333333333333
aF37.200000000000003
aF32.733333333333334
aF35.333333333333329
aF30.033333333333335
aF38.533333333333331
aF38.116666666666667
aF37.549999999999997
asg39
g7
(g9
S'\x12\x9fV\t\xd9\xda@@'
tRp153
sg41
(lp154
F37.933333333333337
aF30.699999999999996
aF35.283333333333324
aF36.900000000000006
aF35.25
aF37.63333333333334
aF35.883333333333333
aF32.766666666666666
aF27.483333333333338
aF33.333333333333329
aF38.233333333333334
aF36.399999999999999
aF32.333333333333329
aF31.850000000000001
aF36
aF37.25
aF33.266666666666666
aF30.733333333333334
aF33.533333333333339
aF38.166666666666664
aF38.233333333333327
aF35.43333333333333
aF34.450000000000003
aF37.516666666666666
aF37.533333333333331
aF36.450000000000003
aF31.383333333333333
aF28.666666666666661
aF29.066666666666659
aF38.683333333333337
aF28.683333333333334
aF36
aF35.449999999999996
aF37.333333333333329
aF30.683333333333337
aF32.333333333333336
aF26.683333333333337
aF32.149999999999999
aF32.633333333333333
aF1.5500000000000007
aF30.933333333333326
aF37.283333333333331
aF27.150000000000002
aF40.783333333333339
aF20.366666666666667
aF30.966666666666665
aF36
aF38.983333333333327
aF31.366666666666667
aF39.716666666666669
aF40.833333333333336
aF41.083333333333336
aF39.300000000000004
asg43
(lp155
F0.054644808743169404
aF0.051150895140664961
aF0.096359743040685231
aF0.06772009029345373
aF0.13901760889712697
aF0.099447513812154706
aF0.051107325383304938
aF0.13412816691505217
aF0.064690026954177901
aF0.05400540054005401
aF0.16172506738544479
aF0.1584786053882726
aF0.054669703872437365
aF0.054844606946983544
aF0.059259259259259282
aF0.081892629663330302
aF0.080645161290322578
aF0.15274949083503053
aF0.084905660377358499
aF0.13318534961154271
aF0.10380622837370243
aF0.078705728027984256
aF0.026631158455392812
asg45
g7
(g9
S'\x03s\xed\xc0\\\xfb@@'
tRp156
ssS'Kyle Lowry'
p157
(dp158
g4
(lp159
F0.10147991543340379
aF0.056153486195601322
aF0.072697899838449112
aF0.076206604572396267
aF0.093530787217459083
aF0.073529411764705885
aF0
aF0.026966292134831458
aF0
aF0.03271537622682661
aF0.12834224598930483
aF0.049668874172185434
aF0.026109660574412535
aF0.11142061281337046
aF0.054249547920433995
aF0.13537906137184119
aF0.028612303290414875
aF0.059288537549407126
aF0.060090135202804207
aF0.07444168734491316
aF0.076857386848847145
aF0.10285714285714284
aF0.048622366288492709
aF0.050912176495545185
aF0.07537688442211056
aF0.071005917159763315
aF0.08725157537566651
aF0.025115110925073247
aF0.025806451612903229
aF0.052105948762483714
aF0.075282308657465505
aF0.052793664760228766
aF0.10165184243964422
aF0.078091106290672438
aF0.054619936276741013
aF0.11080332409972299
aF0.13250883392226148
aF0.073831009023789987
aF0.047827819848545242
aF0
aF0.05830903790087464
aF0.076368264743317774
aF0.023328149300155521
aF0.045334340763128068
aF0.10163749294184075
asg6
g7
(g9
S'\xd3\xd2\xd2\xd2\xd2\xd2\x06@'
tRp160
sg11
g7
(g9
S'333333\x03@'
tRp161
sg13
(lp162
I2
aI4
aI5
aI3
aI3
aI5
aI4
aI3
aI4
aI3
aI4
aI4
aI1
aI1
aI6
aI4
aI4
aI5
aI4
aI4
aI5
aI4
aI4
asg15
g7
(g9
S'\xdf\xf4\xa67\xbd\xe9\r@'
tRp163
sg17
(lp164
sg19
(lp165
F39.716666666666669
aF37.566666666666663
aF35.933333333333337
aF36.416666666666671
asg21
(lp166
sg23
(lp167
F35.616666666666667
aF35.56666666666667
aF34.18333333333333
aF40.266666666666666
aF38
aF28.450000000000003
aF33.866666666666667
asg25
(lp168
F35.56666666666667
asg27
(lp169
F41.699999999999996
aF35.716666666666669
aF35.5
aF41.75
aF42.199999999999996
asg29
(lp170
F35.916666666666664
aF36.416666666666671
asg31
(lp171
F37.766666666666673
aF37.133333333333333
aF39.833333333333329
aF37.283333333333331
aF34.633333333333333
aF39.733333333333334
asg33
(lp172
I4
aI2
aI3
aI3
aI4
aI3
aI0
aI1
aI0
aI1
aI4
aI2
aI1
aI4
aI2
aI5
aI1
aI2
aI2
aI3
aI3
aI3
aI2
aI2
aI3
aI3
aI3
aI1
aI1
aI2
aI3
aI2
aI4
aI3
aI2
aI4
aI5
aI3
aI2
aI0
aI1
aI3
aI1
aI2
aI3
asg35
g7
(g9
S'iiiii\x99B@'
tRp173
sg37
(lp174
F37.766666666666673
aF35.616666666666667
aF35.56666666666667
aF39.716666666666669
aF37.566666666666663
aF35.916666666666664
aF41.699999999999996
aF35.716666666666669
aF37.133333333333333
aF34.18333333333333
aF40.266666666666666
aF38
aF35.5
aF28.450000000000003
aF39.833333333333329
aF37.283333333333331
aF41.75
aF42.199999999999996
aF35.933333333333337
aF33.866666666666667
aF34.633333333333333
aF36.416666666666671
aF39.733333333333334
asg39
g7
(g9
S'\xbb\xbb\xbb\xbb\xbb\x9bB@'
tRp175
sg41
(lp176
F39.416666666666671
aF35.61666666666666
aF41.266666666666666
aF39.366666666666667
aF42.766666666666666
aF40.799999999999997
aF33.433333333333337
aF37.083333333333336
aF31.533333333333328
aF30.566666666666663
aF31.166666666666664
aF40.266666666666666
aF38.299999999999997
aF35.900000000000006
aF36.866666666666667
aF36.933333333333323
aF34.950000000000003
aF33.733333333333327
aF33.283333333333331
aF40.299999999999997
aF39.033333333333331
aF29.166666666666671
aF41.133333333333333
aF39.283333333333331
aF39.799999999999997
aF42.25
aF34.383333333333333
aF39.816666666666677
aF38.749999999999993
aF38.383333333333333
aF39.849999999999994
aF37.88333333333334
aF39.350000000000001
aF38.416666666666671
aF36.616666666666667
aF36.100000000000001
aF37.733333333333334
aF40.633333333333333
aF41.816666666666663
aF37.86666666666666
aF17.149999999999999
aF39.283333333333331
aF42.866666666666667
aF44.116666666666667
aF29.516666666666669
asg43
(lp177
F0.052956751985878188
aF0.11230697239120262
aF0.14058106841611995
aF0.075535039865715484
aF0.079858030168589181
aF0.1392111368909513
aF0.095923261390887304
aF0.083994400373308437
aF0.10771992818671454
aF0.087762067284251594
aF0.099337748344370869
aF0.10526315789473684
aF0.028169014084507043
aF0.035149384885764495
aF0.15062761506276151
aF0.10728654447921324
aF0.09580838323353294
aF0.1184834123222749
aF0.11131725417439702
aF0.11811023622047244
aF0.14436958614051973
aF0.10983981693363842
aF0.10067114093959731
asg45
g7
(g9
S'pz\xd3\x9b\xde\x94B@'
tRp178
ssS'Chris Paul'
p179
(dp180
g4
(lp181
F0.060150375939849635
aF0.034562211981566816
aF0.13355592654424039
aF0.030549898167006116
aF0.12151898734177213
aF0.069970845481049579
aF0.04070556309362279
aF0.055891942244993019
aF0.062761506276150625
aF0.058451047247929856
aF0.02835538752362949
aF0.039011703511053319
aF0.027027027027027029
aF0.057971014492753624
aF0.058823529411764705
aF0.085186938002839566
aF0.1243523316062176
aF0.082342177493138158
aF0.094093047569262941
aF0.087124878993223617
aF0.10791366906474821
aF0.037783375314861457
aF0.085531004989308629
aF0.097985846488840497
aF0.063660477453580902
aF0
aF0.056311590802440172
aF0.061506919528446953
aF0.033149171270718238
aF0.062176165803108814
aF0.036630036630036632
aF0.029211295034079845
aF0.18518518518518517
aF0.079946702198534295
aF0.08645533141210375
aF0
aF0.032102728731942219
aF0.053475935828876997
aF0.056683986773736414
aF0.026749888542131079
aF0.12060301507537687
aF0.065573770491803268
aF0.028887818969667797
aF0.080572963294538946
aF0.082758620689655171
aF0.10416666666666667
aF0.10554089709762532
aF0.049937578027465665
asg6
g7
(g9
S'\x00\x00\x00\x00\x00\x00\x04@'
tRp182
sg11
g7
(g9
S'UUUUU\xd5\x00@'
tRp183
sg13
(lp184
I2
aI2
aI4
aI4
aI4
aI4
aI3
aI4
aI3
aI2
aI4
aI3
aI5
aI4
aI4
aI5
aI2
aI1
aI4
aI5
asg15
g7
(g9
S'\x9a\x99\x99\x99\x99\x99\x0b@'
tRp185
sg17
(lp186
F24.86666666666666
asg19
(lp187
F25.083333333333336
aF33.149999999999999
aF29.833333333333329
aF32.700000000000003
aF35.683333333333337
aF30.116666666666667
aF27.199999999999999
aF34.700000000000003
aF32.933333333333337
asg21
(lp188
sg23
(lp189
F29.383333333333333
aF32.933333333333337
asg25
(lp190
F30.116666666666667
asg27
(lp191
F23.466666666666669
aF33.749999999999993
aF32.983333333333334
aF32.850000000000001
aF35.050000000000004
aF35.950000000000003
aF37.699999999999996
asg29
(lp192
F28.866666666666667
asg31
(lp193
F30.516666666666666
aF32.850000000000001
aF35.683333333333337
asg33
(lp194
I2
aI1
aI4
aI1
aI4
aI2
aI1
aI2
aI2
aI2
aI1
aI1
aI1
aI2
aI2
aI3
aI4
aI3
aI3
aI3
aI4
aI1
aI2
aI3
aI2
aI0
aI2
aI2
aI1
aI2
aI1
aI1
aI2
aI2
aI3
aI0
aI1
aI2
aI2
aI1
aI4
aI2
aI1
aI3
aI3
aI4
aI4
aI2
asg35
g7
(g9
S'/1111\xc1?@'
tRp195
sg37
(lp196
F23.466666666666669
aF25.083333333333336
aF33.749999999999993
aF32.983333333333334
aF33.149999999999999
aF24.86666666666666
aF29.833333333333329
aF28.866666666666667
aF32.700000000000003
aF30.516666666666666
aF32.850000000000001
aF35.683333333333337
aF29.383333333333333
aF35.050000000000004
aF35.950000000000003
aF30.116666666666667
aF27.199999999999999
aF34.700000000000003
aF32.933333333333337
aF37.699999999999996
asg39
g7
(g9
S'\xd8\x82-\xd8\x82\xed?@'
tRp197
sg41
(lp198
F33.249999999999993
aF28.933333333333337
aF29.950000000000003
aF32.733333333333327
aF32.916666666666671
aF28.583333333333329
aF24.56666666666667
aF35.783333333333331
aF31.866666666666667
aF34.216666666666669
aF35.266666666666666
aF25.633333333333329
aF37
aF34.5
aF34
aF35.216666666666669
aF32.166666666666671
aF36.43333333333333
aF31.883333333333333
aF34.433333333333337
aF37.066666666666663
aF26.466666666666669
aF23.383333333333333
aF30.616666666666667
aF31.416666666666664
aF13.783333333333331
aF35.516666666666666
aF32.516666666666666
aF30.166666666666661
aF32.166666666666664
aF27.299999999999997
aF34.233333333333334
aF10.800000000000001
aF25.016666666666673
aF34.699999999999996
aF28.716666666666669
aF31.149999999999999
aF37.400000000000006
aF35.283333333333339
aF37.383333333333326
aF33.166666666666671
aF30.500000000000004
aF34.61666666666666
aF37.233333333333334
aF36.25
aF38.399999999999999
aF37.900000000000006
aF40.050000000000004
asg43
(lp199
F0.085227272727272721
aF0.079734219269102985
aF0.11851851851851854
aF0.12127337038908539
aF0.12066365007541478
aF0.16085790884718504
aF0.10055865921787711
aF0.13856812933025403
aF0.091743119266055037
aF0.065537957400327695
aF0.12176560121765601
aF0.084072863148061644
aF0.17016449234259784
aF0.11412268188302424
aF0.11126564673157162
aF0.16602102933038185
aF0.073529411764705885
aF0.028818443804034581
aF0.12145748987854249
aF0.13262599469496023
asg45
g7
(g9
S'\n:m\xa0\xd3V?@'
tRp200
ssS'Jimmy Butler'
p201
(dp202
g4
(lp203
F0.081967213114754078
aF0.077120822622107968
aF0.10995723885155773
aF0
aF0
aF0.025456088247772592
aF0.026513477684489618
aF0.052196607220530669
aF0.058167716917111013
aF0
aF0.02624671916010498
aF0.025010421008753645
aF0.076142131979695438
aF0.032786885245901641
aF0.023875845602865101
aF0.027210884353741496
aF0.023300970873786409
aF0.052219321148825062
aF0.052151238591916553
aF0.051457975986277875
aF0.026642984014209593
aF0
aF0.10296010296010298
aF0.051020408163265314
aF0.082530949105914714
aF0.025125628140703515
aF0.052151238591916553
aF0.13020833333333334
aF0.026607538802660757
aF0
aF0.052015604681404419
aF0
aF0
aF0.044427989633469084
aF0.052724077328646743
aF0.024906600249065998
aF0
aF0.025586353944562899
aF0
aF0
aF0.05183585313174946
aF0.06718924972004478
aF0.10568031704095111
aF0.049916805324459239
aF0.052310374891020049
aF0.025974025974025976
aF0.025906735751295342
aF0.024400162667751121
aF0.027459954233409606
aF0
aF0
aF0.032223415682062301
aF0
aF0.026064291920069503
aF0
aF0.052539404553415069
aF0.02620087336244541
aF0.025895554596460941
aF0.029615004935834157
aF0.023734177215189875
aF0.02561912894961571
aF0
aF0.070532915360501575
aF0
aF0
aF0
aF0.064935064935064929
aF0.028694404591104738
aF0.049342105263157889
aF0.023201856148491882
aF0.051791109192921889
aF0.10921004732435384
aF0
aF0.031864046733935211
asg6
g7
(g9
S'28\x1f\x83\xf31\xf8?'
tRp204
sg11
g7
(g9
S'\x07S\xe4\xb3n0\xf5?'
tRp205
sg13
(lp206
I5
aI3
aI3
aI3
aI3
aI2
aI3
aI4
asg15
g7
(g9
S'\x00\x00\x00\x00\x00\x00\n@'
tRp207
sg17
(lp208
sg19
(lp209
F31.75
aF35.683333333333323
aF30.233333333333334
asg21
(lp210
F33.350000000000001
asg23
(lp211
F30.333333333333336
asg25
(lp212
sg27
(lp213
F35.766666666666666
aF40.049999999999997
asg29
(lp214
sg31
(lp215
F39.666666666666657
asg33
(lp216
I3
aI2
aI3
aI0
aI0
aI1
aI1
aI2
aI2
aI0
aI1
aI1
aI3
aI1
aI1
aI1
aI1
aI2
aI2
aI2
aI1
aI0
aI4
aI2
aI3
aI1
aI2
aI5
aI1
aI0
aI2
aI0
aI0
aI2
aI2
aI1
aI0
aI1
aI0
aI0
aI2
aI2
aI4
aI2
aI2
aI1
aI1
aI1
aI1
aI0
aI0
aI1
aI0
aI1
aI0
aI2
aI1
aI1
aI1
aI1
aI1
aI0
aI3
aI0
aI0
aI0
aI2
aI1
aI2
aI1
aI2
aI5
aI0
aI1
asg35
g7
(g9
S'\xf5\xd5R_-\x95B@'
tRp217
sg37
(lp218
F35.766666666666666
aF31.75
aF40.049999999999997
aF35.683333333333323
aF30.233333333333334
aF33.350000000000001
aF30.333333333333336
aF39.666666666666657
asg39
g7
(g9
S'\x8a\xff\x82\xac\x9e\xb8B@'
tRp219
sg41
(lp220
F36.600000000000009
aF25.933333333333334
aF27.283333333333335
aF37.216666666666661
aF30.649999999999999
aF39.283333333333331
aF37.716666666666661
aF38.316666666666663
aF34.383333333333326
aF40.516666666666666
aF38.100000000000009
aF39.983333333333334
aF39.399999999999999
aF30.5
aF41.883333333333333
aF36.75
aF42.916666666666664
aF38.300000000000004
aF38.350000000000001
aF38.866666666666667
aF37.533333333333331
aF30
aF38.849999999999994
aF39.199999999999996
aF36.350000000000001
aF39.800000000000004
aF38.350000000000001
aF38.399999999999999
aF37.583333333333329
aF38.31666666666667
aF38.450000000000003
aF39.216666666666669
aF28.800000000000001
aF45.016666666666666
aF37.933333333333337
aF40.150000000000006
aF29.466666666666669
aF39.083333333333336
aF38.866666666666667
aF40.13333333333334
aF38.583333333333336
aF29.766666666666669
aF37.850000000000001
aF40.066666666666663
aF38.233333333333334
aF38.5
aF38.599999999999994
aF40.983333333333327
aF36.416666666666671
aF39.016666666666666
aF38.25
aF31.033333333333331
aF31.666666666666668
aF38.366666666666667
aF39.866666666666667
aF38.066666666666663
aF38.166666666666671
aF38.616666666666667
aF33.766666666666666
aF42.133333333333333
aF39.033333333333339
aF38.43333333333333
aF42.533333333333331
aF38.799999999999997
aF37.149999999999999
aF38.033333333333331
aF30.800000000000001
aF34.849999999999994
aF40.533333333333339
aF43.099999999999994
aF38.61666666666666
aF45.783333333333331
aF39.283333333333339
aF31.383333333333333
asg43
(lp221
F0.13979496738117428
aF0.094488188976377951
aF0.074906367041198504
aF0.084072863148061672
aF0.099228224917309815
aF0.059970014992503748
aF0.098901098901098897
aF0.10084033613445381
asg45
g7
(g9
S'VUUUUMA@'
tRp222
ssS'LeBron James'
p223
(dp224
g4
(lp225
F0.092640247040658777
aF0.051746442432082797
aF0.051282051282051273
aF0.11152416356877326
aF0.054995417048579298
aF0.027881040892193301
aF0.081337550835969274
aF0.026235242675994749
aF0
aF0.052539404553415069
aF0.035650623885917998
aF0
aF0.034423407917383818
aF0
aF0.059494298463063956
aF0.044776119402985079
aF0.047600158667195559
aF0.061601642710472276
aF0.053595355069227336
aF0.070699135899450108
aF0.027409776153494745
aF0.025695931477516056
aF0.023538642604943115
aF0
aF0
aF0.04573170731707317
aF0.027945971122496509
aF0.022796352583586626
aF0.054200542005420044
aF0.056657223796033988
aF0.075949367088607597
aF0
aF0.032768978700163848
aF0.047980807676929235
aF0.028571428571428571
aF0.051107325383304952
aF0.045749142203583684
aF0.07534533277521975
aF0.029211295034079845
aF0.02714932126696832
aF0
aF0.029013539651837523
aF0.025263157894736845
aF0.052264808362369332
aF0.024459845087647782
aF0.075949367088607597
aF0.061381074168797949
aF0.026954177897574129
aF0.074937552039966687
aF0.10212765957446809
aF0.051701852649719951
aF0.025586353944562899
aF0.049792531120331954
aF0
aF0
aF0.029268292682926824
aF0.050146259924780605
aF0.049281314168377832
aF0
aF0.07202881152460984
aF0
aF0.11411182959300113
aF0.070202808112324488
aF0.047318611987381708
aF0.088462956137117577
aF0.022354694485842028
aF0.048740861088545903
aF0.02461033634126333
aF0.021652832912306026
aF0.047656870532168383
aF0.030487804878048776
aF0.044395116537180916
aF0.11516314779270632
aF0.050782903089293271
aF0.043859649122807015
aF0.066055045871559637
asg6
g7
(g9
S'n\xdb\xb6m\xdb\xb6\xfd?'
tRp226
sg11
g7
(g9
S'(\xaf\xa1\xbc\x86\xf2\xfa?'
tRp227
sg13
(lp228
I3
aI2
aI3
aI5
aI1
aI1
aI3
aI2
aI3
aI2
aI2
aI3
aI3
aI4
aI4
asg15
g7
(g9
S'\xde\xdd\xdd\xdd\xdd\xdd\x05@'
tRp229
sg17
(lp230
sg19
(lp231
F40.18333333333333
asg21
(lp232
sg23
(lp233
F32.88333333333334
aF40.333333333333336
aF37.56666666666667
aF29.93333333333333
aF38.266666666666666
aF40.033333333333331
asg25
(lp234
sg27
(lp235
F33.149999999999999
aF37.183333333333337
aF37.833333333333329
aF29.533333333333339
aF38.533333333333339
aF40.033333333333331
asg29
(lp236
F41.283333333333331
asg31
(lp237
F37.099999999999994
aF36.600000000000009
asg33
(lp238
I3
aI2
aI2
aI4
aI2
aI1
aI3
aI1
aI0
aI2
aI1
aI0
aI1
aI0
aI2
aI2
aI2
aI2
aI2
aI3
aI1
aI1
aI1
aI0
aI0
aI2
aI1
aI1
aI2
aI2
aI3
aI0
aI1
aI2
aI1
aI2
aI2
aI3
aI1
aI1
aI0
aI1
aI1
aI2
aI1
aI3
aI2
aI1
aI3
aI4
aI2
aI1
aI2
aI0
aI0
aI1
aI2
aI2
aI0
aI3
aI0
aI5
aI3
aI2
aI4
aI1
aI2
aI1
aI1
aI2
aI1
aI2
aI4
aI2
aI2
aI3
asg35
g7
(g9
S'Xy\x95Wy\x15C@'
tRp239
sg37
(lp240
F32.88333333333334
aF40.18333333333333
aF40.333333333333336
aF41.283333333333331
aF33.149999999999999
aF37.183333333333337
aF37.56666666666667
aF37.833333333333329
aF29.533333333333339
aF29.93333333333333
aF37.099999999999994
aF38.533333333333339
aF36.600000000000009
aF38.266666666666666
aF40.033333333333331
asg39
g7
(g9
S'*\x10F\xda\xb1:C@'
tRp241
sg41
(lp242
F32.383333333333333
aF38.649999999999999
aF39.000000000000007
aF35.86666666666666
aF36.36666666666666
aF35.866666666666674
aF36.883333333333333
aF38.116666666666674
aF38.700000000000003
aF38.066666666666663
aF28.050000000000004
aF37.5
aF29.050000000000004
aF41.5
aF33.616666666666667
aF44.666666666666664
aF42.016666666666666
aF32.466666666666669
aF37.316666666666663
aF42.433333333333337
aF36.483333333333334
aF38.916666666666671
aF42.483333333333334
aF34.416666666666671
aF27.249999999999993
aF43.733333333333334
aF35.783333333333331
aF43.866666666666667
aF36.900000000000006
aF35.300000000000004
aF39.5
aF36.93333333333333
aF30.516666666666666
aF41.68333333333333
aF35
aF39.133333333333326
aF43.716666666666669
aF39.81666666666667
aF34.233333333333334
aF36.833333333333343
aF37.283333333333331
aF34.466666666666669
aF39.583333333333329
aF38.266666666666673
aF40.883333333333326
aF39.5
aF32.583333333333336
aF37.099999999999994
aF40.033333333333339
aF39.166666666666664
aF38.68333333333333
aF39.083333333333336
aF40.166666666666664
aF28.400000000000002
aF38.25
aF34.166666666666671
aF39.88333333333334
aF40.583333333333329
aF39.116666666666667
aF41.649999999999999
aF41.416666666666657
aF43.81666666666667
aF42.733333333333334
aF42.266666666666666
aF45.216666666666669
aF44.733333333333334
aF41.033333333333331
aF40.633333333333333
aF46.183333333333337
aF41.966666666666669
aF32.800000000000004
aF45.049999999999997
aF34.733333333333334
aF39.383333333333333
aF45.600000000000001
aF45.416666666666664
asg43
(lp243
F0.09123162696401417
aF0.049771878888428045
aF0.0743801652892562
aF0.12111425111021397
aF0.030165912518853696
aF0.026893769610040339
aF0.079858030168589167
aF0.052863436123348026
aF0.10158013544018057
aF0.066815144766147
aF0.053908355795148258
aF0.077854671280276802
aF0.081967213114754078
aF0.10452961672473868
aF0.099916736053288935
asg45
g7
(g9
S'\x8f\xe38\x8e\xe3XB@'
tRp244
ssS'Stephen Curry'
p245
(dp246
g4
(lp247
F0.029325513196480937
aF0.10175240248728094
aF0.033277870216306162
aF0.056100981767180931
aF0.032432432432432427
aF0.033407572383073493
aF0.054372451291345721
aF0.080285459411239962
aF0.11019283746556474
aF0.11527377521613832
aF0.033898305084745763
aF0.034802784222737818
aF0.067001675041876041
aF0.13714285714285712
aF0.09013520280420631
aF0.056232427366447992
aF0.098092643051771122
aF0.094986807387862818
aF0.058622374206155362
aF0
aF0
aF0.028571428571428571
aF0.06633499170812604
aF0.057061340941512127
aF0.027842227378190258
aF0.026737967914438499
aF0.080862533692722366
aF0
aF0
aF0.05772005772005772
aF0
aF0.027485112230874943
aF0.056390977443609019
aF0.054769511638521222
aF0.047040376323010585
aF0.034542314335060449
aF0.066079295154185022
aF0.026714158504007126
aF0.027210884353741496
aF0.086042065009560242
aF0.05359535506922733
aF0.037453183520599245
aF0.066555740432612309
aF0.15535991714137751
aF0.057279236276849645
aF0.057471264367816098
aF0.054274084124830389
aF0.11588604538870112
aF0.113314447592068
aF0.080178173719376397
aF0.03556609365737997
aF0.099064391854705558
aF0.1003904071388734
aF0.033613445378151259
aF0
aF0.027535566773749423
aF0.14231499051233396
aF0.083420229405630861
aF0.066926938092582267
aF0
aF0.033388981636060099
aF0.035128805620608897
aF0.032432432432432427
aF0.025839793281653745
aF0
aF0.030333670374115267
aF0.071741729772817855
aF0.050420168067226885
aF0.056577086280056574
aF0
aF0.098199672667757754
aF0.058968058968058963
aF0.086413826212193942
aF0.082758620689655171
aF0.076174354633939928
aF0.052980132450331126
asg6
g7
(g9
S'\xfd\x9e[\xe2\xd4\xef\x01@'
tRp248
sg11
g7
(g9
S'l(\xaf\xa1\xbc\x86\xfe?'
tRp249
sg13
(lp250
I3
aI5
aI3
aI1
aI4
aI2
aI4
aI3
aI5
aI4
aI3
aI4
aI3
aI4
aI4
aI5
aI3
aI5
aI3
asg15
g7
(g9
S'\x1b\xcak(\xaf\xa1\x0c@'
tRp251
sg17
(lp252
sg19
(lp253
F31.099999999999998
aF38.233333333333334
aF31.816666666666674
aF8.8333333333333339
aF37.516666666666659
aF34.233333333333334
aF35.783333333333339
aF33.5
asg21
(lp254
sg23
(lp255
F34.066666666666663
aF34.216666666666669
aF31.099999999999998
aF37.150000000000006
aF31.816666666666674
aF33.433333333333337
aF35.566666666666663
asg25
(lp256
F34.216666666666669
asg27
(lp257
F35.599999999999994
aF32.966666666666669
aF36.316666666666663
aF28.199999999999999
aF35.466666666666661
aF33.433333333333337
aF35.783333333333339
asg29
(lp258
F33.433333333333337
asg31
(lp259
F32.966666666666669
aF34.233333333333334
aF35.333333333333329
asg33
(lp260
I1
aI3
aI1
aI2
aI1
aI1
aI2
aI3
aI4
aI4
aI1
aI1
aI2
aI4
aI3
aI2
aI3
aI3
aI2
aI0
aI0
aI1
aI2
aI2
aI1
aI1
aI3
aI0
aI0
aI2
aI0
aI1
aI2
aI2
aI2
aI1
aI2
aI1
aI1
aI3
aI2
aI1
aI2
aI5
aI2
aI2
aI2
aI4
aI4
aI3
aI1
aI3
aI3
aI1
aI0
aI1
aI5
aI4
aI2
aI0
aI1
aI1
aI1
aI1
aI0
aI1
aI3
aI2
aI2
aI0
aI3
aI2
aI3
aI3
aI3
aI2
asg35
g7
(g9
S'\xee\x05o6A\xe5@@'
tRp261
sg37
(lp262
F34.066666666666663
aF34.216666666666669
aF31.099999999999998
aF35.599999999999994
aF37.150000000000006
aF38.233333333333334
aF31.816666666666674
aF8.8333333333333339
aF32.966666666666669
aF37.516666666666659
aF36.316666666666663
aF28.199999999999999
aF34.233333333333334
aF35.466666666666661
aF35.333333333333329
aF33.433333333333337
aF35.566666666666663
aF35.783333333333339
aF33.5
asg39
g7
(g9
S'*E\x0f{\xa3\xfa@@'
tRp263
sg41
(lp264
F34.100000000000001
aF29.483333333333334
aF30.049999999999997
aF35.649999999999999
aF30.833333333333336
aF29.933333333333334
aF36.783333333333331
aF37.366666666666667
aF36.299999999999997
aF34.700000000000003
aF29.5
aF28.733333333333334
aF29.850000000000001
aF29.166666666666671
aF33.283333333333331
aF35.566666666666663
aF30.583333333333332
aF31.583333333333325
aF34.11666666666666
aF33.833333333333336
aF30.216666666666669
aF35
aF30.149999999999999
aF35.049999999999997
aF35.916666666666664
aF37.400000000000006
aF37.100000000000001
aF35.716666666666669
aF29.850000000000001
aF34.649999999999999
aF34.183333333333337
aF36.383333333333333
aF35.466666666666669
aF36.516666666666666
aF42.516666666666666
aF28.949999999999999
aF30.266666666666666
aF37.43333333333333
aF36.75
aF34.86666666666666
aF37.31666666666667
aF26.700000000000003
aF30.050000000000001
aF32.183333333333337
aF34.916666666666664
aF34.799999999999997
aF36.850000000000001
aF34.516666666666666
aF35.299999999999997
aF37.416666666666664
aF28.116666666666664
aF30.283333333333331
aF29.883333333333333
aF29.75
aF33.233333333333334
aF36.31666666666667
aF35.133333333333333
aF47.950000000000003
aF29.883333333333333
aF35.199999999999996
aF29.949999999999999
aF28.466666666666669
aF30.833333333333336
aF38.700000000000003
aF29.716666666666669
aF32.966666666666669
aF41.816666666666663
aF39.666666666666671
aF35.350000000000001
aF39.18333333333333
aF30.550000000000004
aF33.916666666666671
aF34.716666666666669
aF36.25
aF39.383333333333326
aF37.75
asg43
(lp265
F0.088062622309197661
aF0.14612761811982464
aF0.096463022508038593
aF0.028089887640449444
aF0.10767160161507401
aF0.052310374891020049
aF0.1257202723939235
aF0.33962264150943394
aF0.15166835187057634
aF0.10661928031985786
aF0.082606700321248283
aF0.14184397163120568
aF0.087633885102239531
aF0.11278195488721807
aF0.11320754716981134
aF0.14955134596211364
aF0.084348641049671991
aF0.13972985561248252
aF0.089552238805970144
asg45
g7
(g9
S'\xfb\x08\xee#\xb8\x8f@@'
tRp266
ssS'Rudy Gobert'
p267
(dp268
g4
(lp269
F0.073260073260073263
aF0.062728698379508618
aF0.11988011988011986
aF0.067834934991520643
aF0.099064391854705544
aF0.029112081513828242
aF0
aF0.028288543140028283
aF0.062337662337662345
aF0.11605415860735009
aF0.056523787093735268
aF0.052264808362369339
aF0.056523787093735268
aF0.11230697239120264
aF0.13020833333333334
aF0.096411355115158012
aF0.02834199338686821
aF0.10738255033557047
aF0.029925187032418948
aF0.053475935828877018
aF0.10628875110717448
aF0.028985507246376798
aF0.083798882681564241
aF0.082720588235294115
aF0.032275416890801503
aF0.027752081406105453
aF0
aF0.05481955230698949
aF0.029895366218236172
aF0.026654820079964461
aF0.1046207497820401
aF0.079400088222320253
aF0.088888888888888865
aF0.040241448692152924
aF0.082911100875172741
aF0.093847758081334734
aF0.090909090909090925
aF0.027434842249657063
aF0.11111111111111109
aF0.055736182071528091
aF0.081447963800904993
aF0.080717488789237693
aF0.052516411378555804
aF0.055478502080443831
aF0.10122311261071278
aF0.029225523623964928
aF0.078982009653356722
aF0
aF0.12030075187969924
aF0
aF0.051413881748071988
asg6
g7
(g9
S'DDDDDD\x08@'
tRp270
sg11
g7
(g9
S'222222\x02@'
tRp271
sg13
(lp272
I3
aI5
aI6
aI6
aI5
aI5
aI4
aI3
aI2
aI3
aI4
aI5
aI3
aI4
aI5
aI3
aI3
aI4
aI6
aI3
aI6
aI5
aI2
aI3
aI3
aI4
aI4
aI6
aI4
aI5
aI3
aI2
aI1
aI5
aI3
aI6
aI3
aI6
aI4
asg15
g7
(g9
S'\xa4A\x1a\xa4A\x1a\x10@'
tRp273
sg17
(lp274
F22.833333333333332
aF26.149999999999999
aF34.116666666666674
aF13.433333333333332
asg19
(lp275
F26.116666666666671
aF20.166666666666671
aF33.333333333333329
aF36.799999999999997
aF36.43333333333333
aF33.75
aF32.333333333333329
aF33.299999999999997
aF21.18333333333333
asg21
(lp276
F13.433333333333332
asg23
(lp277
F26.116666666666671
aF22.833333333333332
aF20.166666666666671
aF33.066666666666663
aF21.883333333333333
aF26.149999999999999
aF29.166666666666664
aF34.5
aF31.250000000000007
aF36.43333333333333
aF21.18333333333333
aF27.333333333333336
asg25
(lp278
F22.833333333333332
aF20.166666666666671
aF24.783333333333331
aF27.333333333333336
aF13.433333333333332
asg27
(lp279
F21.883333333333333
aF33.333333333333329
aF36.799999999999997
aF38.883333333333333
aF29.56666666666667
aF34.5
aF35.18333333333333
aF31.250000000000007
aF36.016666666666666
aF29.900000000000006
aF35.983333333333334
aF36.016666666666666
aF37.13333333333334
aF30.766666666666662
aF23.816666666666663
aF36.86666666666666
aF32.799999999999997
asg29
(lp280
F20.166666666666671
aF21.883333333333333
aF31.250000000000007
aF28.966666666666665
aF13.433333333333332
asg31
(lp281
F33.383333333333333
aF20.166666666666671
aF29.56666666666667
aF34.116666666666674
aF35.983333333333334
aF35.383333333333333
aF35.283333333333331
aF27.333333333333336
aF35.899999999999999
aF33.450000000000003
aF13.433333333333332
aF30.600000000000001
aF32.799999999999997
asg33
(lp282
I3
aI2
aI4
aI2
aI3
aI1
aI0
aI1
aI2
aI4
aI2
aI2
aI2
aI4
aI5
aI3
aI1
aI4
aI1
aI2
aI4
aI1
aI3
aI3
aI1
aI1
aI0
aI2
aI1
aI1
aI4
aI3
aI3
aI1
aI3
aI3
aI3
aI1
aI4
aI2
aI3
aI3
aI2
aI2
aI4
aI1
aI3
aI0
aI4
aI0
aI2
asg35
g7
(g9
S'_7\xba\xe7\xbf\x92@@'
tRp283
sg37
(lp284
F26.116666666666671
aF22.833333333333332
aF33.383333333333333
aF20.166666666666671
aF33.066666666666663
aF21.883333333333333
aF26.149999999999999
aF29.166666666666664
aF33.333333333333329
aF36.799999999999997
aF38.883333333333333
aF29.56666666666667
aF34.5
aF35.18333333333333
aF31.250000000000007
aF36.43333333333333
aF36.016666666666666
aF24.783333333333331
aF34.116666666666674
aF29.900000000000006
aF35.983333333333334
aF33.75
aF32.333333333333329
aF33.299999999999997
aF21.18333333333333
aF36.016666666666666
aF37.13333333333334
aF35.383333333333333
aF35.283333333333331
aF27.333333333333336
aF30.766666666666662
aF28.966666666666665
aF23.816666666666663
aF35.899999999999999
aF33.450000000000003
aF13.433333333333332
aF30.600000000000001
aF36.86666666666666
aF32.799999999999997
asg39
g7
(g9
S'\xc8\xc7\xc7\xc7\xc7gA@'
tRp285
sg41
(lp286
F40.949999999999996
aF31.88333333333334
aF33.366666666666674
aF29.483333333333331
aF30.283333333333339
aF34.349999999999994
aF43.566666666666663
aF35.350000000000009
aF32.083333333333329
aF34.466666666666669
aF35.38333333333334
aF38.266666666666666
aF35.38333333333334
aF35.61666666666666
aF38.399999999999999
aF31.116666666666664
aF35.283333333333331
aF37.25
aF33.416666666666671
aF37.399999999999991
aF37.63333333333334
aF34.500000000000014
aF35.800000000000004
aF36.266666666666666
aF30.983333333333334
aF36.033333333333339
aF36.450000000000003
aF36.483333333333334
aF33.450000000000003
aF37.516666666666666
aF38.233333333333334
aF37.783333333333331
aF33.750000000000007
aF24.849999999999998
aF36.18333333333333
aF31.966666666666665
aF32.999999999999993
aF36.450000000000003
aF36.000000000000007
aF35.88333333333334
aF36.833333333333329
aF37.166666666666657
aF38.083333333333329
aF36.049999999999997
aF39.516666666666666
aF34.216666666666669
aF37.983333333333341
aF40.549999999999997
aF33.25
aF0.28333333333333321
aF38.899999999999991
asg43
(lp287
F0.11486917677089979
aF0.21897810218978103
aF0.1797304043934099
aF0.29752066115702475
aF0.15120967741935484
aF0.22848438690022849
aF0.15296367112810708
aF0.10285714285714287
aF0.060000000000000012
aF0.081521739130434784
aF0.10287183883411916
aF0.16910935738444191
aF0.086956521739130432
aF0.11369019422074847
aF0.15999999999999998
aF0.082342177493138158
aF0.083294770939379925
aF0.16139878950907868
aF0.17586712261846602
aF0.10033444816053509
aF0.1667438628994905
aF0.14814814814814814
aF0.061855670103092793
aF0.0900900900900901
aF0.14162077104642015
aF0.11105969458583989
aF0.10771992818671453
aF0.16957136128120584
aF0.11336797354747284
aF0.18292682926829268
aF0.097508125677139776
aF0.06904487917146146
aF0.041987403778866346
aF0.1392757660167131
aF0.089686098654708515
aF0.44665012406947896
aF0.098039215686274508
aF0.16274864376130202
aF0.12195121951219513
asg45
g7
(g9
S'\x85Wx\x85W\xf8>@'
tRp288
ssS'Kawhi Leonard'
p289
(dp290
g4
(lp291
F0.031201248049921991
aF0.035714285714285712
aF0.02793296089385475
aF0.063492063492063502
aF0.035820895522388062
aF0.021590500179920837
aF0.026869682042095833
aF0.07971656333038088
aF0.057859209257473489
aF0
aF0.054644808743169383
aF0.028557829604950024
aF0.028076743097800654
aF0.031217481789802291
aF0.032223415682062308
aF0.02915451895043732
aF0.032520325203252036
aF0.028089887640449437
aF0.078671328671328658
aF0.036855036855036855
aF0.027372262773722629
aF0
aF0.034742327735958312
aF0.027510316368638245
aF0.063091482649842268
aF0.026583961010190518
aF0.071005917159763315
aF0.055248618784530391
aF0.060821084642676118
aF0.02775208140610546
aF0
aF0.027739251040221916
aF0.065717415115005479
aF0.05393258426966293
aF0
aF0.039551746868820035
aF0
aF0.054298642533936646
aF0
aF0.036877688998156112
aF0
aF0.028763183125599234
aF0.025619128949615714
aF0.02564102564102564
aF0.075805432722678465
aF0.10300429184549356
aF0.10953902327704244
aF0.054869684499314134
aF0.038192234245703366
aF0.065040650406504072
aF0.052378873854212131
aF0.025488530161427356
aF0.066852367688022288
aF0
aF0.05249343832020998
aF0.027855153203342625
aF0.028846153846153848
aF0
aF0.065573770491803268
aF0.031168831168831165
aF0.049545829892650703
aF0.076595744680851063
aF0.025445292620865142
aF0.050104384133611693
aF0
aF0
aF0.097284150790433746
aF0.067189249720044794
aF0.023771790808240885
aF0.083740404745289598
asg6
g7
(g9
S'\x8f\xb8#\xee\x88;\xfa?'
tRp292
sg11
g7
(g9
S'n\xdb\xb6m\xdb\xb6\xf5?'
tRp293
sg13
(lp294
I5
aI3
aI1
aI2
aI2
aI3
aI2
aI4
aI3
aI2
aI3
aI5
aI4
aI4
aI1
aI2
asg15
g7
(g9
S'\x00\x00\x00\x00\x00\x00\x07@'
tRp295
sg17
(lp296
F14.049999999999997
asg19
(lp297
F23.133333333333326
aF30.200000000000003
asg21
(lp298
sg23
(lp299
F34.916666666666664
aF29.816666666666663
aF33.799999999999997
asg25
(lp300
F23.133333333333326
aF35.700000000000003
aF30.866666666666667
asg27
(lp301
F32.033333333333339
aF34.083333333333343
aF38.583333333333329
aF32.866666666666667
aF34.483333333333334
aF34.666666666666664
asg29
(lp302
F40.983333333333334
asg31
(lp303
F32.383333333333333
asg33
(lp304
I1
aI1
aI1
aI2
aI1
aI1
aI1
aI3
aI2
aI0
aI2
aI1
aI1
aI1
aI1
aI1
aI1
aI1
aI3
aI1
aI1
aI0
aI1
aI1
aI2
aI1
aI2
aI2
aI2
aI1
aI0
aI1
aI2
aI2
aI0
aI1
aI0
aI2
aI0
aI1
aI0
aI1
aI1
aI1
aI2
aI4
aI4
aI2
aI1
aI2
aI2
aI1
aI2
aI0
aI2
aI1
aI1
aI0
aI2
aI1
aI2
aI3
aI1
aI2
aI0
aI0
aI4
aI2
aI1
aI2
asg35
g7
(g9
S'\xb4\xd8\xc6O\x8b\xdd@@'
tRp305
sg37
(lp306
F34.916666666666664
aF29.816666666666663
aF32.033333333333339
aF33.799999999999997
aF34.083333333333343
aF23.133333333333326
aF32.383333333333333
aF38.583333333333329
aF40.983333333333334
aF32.866666666666667
aF35.700000000000003
aF30.866666666666667
aF34.483333333333334
aF34.666666666666664
aF14.049999999999997
aF30.200000000000003
asg39
g7
(g9
S'\xbfX\xf2\x8b%\x0fA@'
tRp307
sg41
(lp308
F32.050000000000004
aF28
aF35.799999999999997
aF31.499999999999996
aF27.916666666666664
aF46.316666666666663
aF37.216666666666669
aF37.633333333333326
aF34.566666666666663
aF39.199999999999996
aF36.600000000000009
aF35.016666666666666
aF35.616666666666667
aF32.033333333333331
aF31.033333333333328
aF34.299999999999997
aF30.75
aF35.600000000000001
aF38.13333333333334
aF27.133333333333333
aF36.533333333333331
aF27.433333333333334
aF28.783333333333331
aF36.349999999999994
aF31.699999999999999
aF37.616666666666667
aF28.166666666666664
aF36.199999999999996
aF32.88333333333334
aF36.033333333333331
aF26.083333333333336
aF36.049999999999997
aF30.43333333333333
aF37.083333333333329
aF35.583333333333329
aF25.283333333333335
aF31.799999999999997
aF36.833333333333336
aF38.949999999999996
aF27.116666666666671
aF25.533333333333331
aF34.766666666666666
aF39.033333333333331
aF39
aF26.383333333333333
aF38.833333333333336
aF36.516666666666666
aF36.449999999999996
aF26.183333333333337
aF30.75
aF38.183333333333337
aF39.233333333333334
aF29.916666666666664
aF40.183333333333337
aF38.099999999999994
aF35.899999999999991
aF34.666666666666664
aF20.149999999999999
aF30.500000000000004
aF32.083333333333336
aF40.366666666666667
aF39.166666666666664
aF39.299999999999997
aF39.916666666666664
aF36
aF40.999999999999993
aF41.11666666666666
aF29.766666666666666
aF42.06666666666667
aF23.883333333333336
asg43
(lp309
F0.14319809069212411
aF0.10061486864169929
aF0.031217481789802284
aF0.059171597633136098
aF0.058679706601466979
aF0.12968299711815567
aF0.061760164693772518
aF0.10367170626349893
aF0.07320048800325335
aF0.060851926977687626
aF0.084033613445378144
aF0.16198704103671707
aF0.11599806669888835
aF0.11538461538461539
aF0.071174377224199309
aF0.066225165562913899
asg45
g7
(g9
S'\x89\x88\x88\x88\x88\x04@@'
tRp310
ssS'Karl-Anthony Towns'
p311
(dp312
g4
(lp313
F0.082229328460484238
aF0.033351862145636464
aF0.10661928031985785
aF0.032327586206896554
aF0.077186963979416823
aF0.053908355795148244
aF0.078397212543554015
aF0.056523787093735268
aF0.048154093097913325
aF0.10180995475113122
aF0.080500894454382826
aF0.11544011544011544
aF0.025795356835769556
aF0.026642984014209593
aF0.031007751937984496
aF0.028818443804034581
aF0.059494298463063956
aF0.079400088222320253
aF0.098562628336755637
aF0.10738255033557047
aF0.068519223448800917
aF0.10029251984956121
aF0.052539404553415069
aF0.09382329945269742
aF0.073921971252566748
aF0.099875156054931344
aF0.12958963282937366
aF0.053003533568904596
aF0.027739251040221916
aF0.075187969924812026
aF0
aF0.13117621337997376
aF0.10582010582010583
aF0.081743869209809264
aF0.029168692270296549
aF0.051925573344872349
aF0.053691275167785234
aF0.079051383399209474
aF0.057007125890736352
aF0.073740270380991388
aF0.10512483574244416
aF0.099750623441396527
aF0.074349442379182173
aF0.077955825032481593
aF0.050654284508231319
aF0.02557544757033248
aF0.032034169781099839
aF0.024620434961017647
aF0.12116316639741519
aF0.10071338648762065
aF0.05188067444876783
aF0.072332730560578665
aF0.072668550666128387
aF0.049545829892650703
aF0.055325034578146602
asg6
g7
(g9
S'jW\xa2v%j\x07@'
tRp314
sg11
g7
(g9
S'\xcd\xcc\xcc\xcc\xcc\xcc\x04@'
tRp315
sg13
(lp316
I5
aI5
aI3
aI5
aI2
aI5
aI3
aI1
aI5
aI4
aI3
aI3
aI3
aI4
aI3
aI5
aI4
aI2
aI5
aI5
aI4
aI2
aI3
aI2
aI3
aI4
aI4
asg15
g7
(g9
S'\xdaKh/\xa1\xbd\x0c@'
tRp317
sg17
(lp318
F33.950000000000003
aF35.066666666666663
asg19
(lp319
F40.700000000000003
aF29.266666666666666
aF30.066666666666677
aF31.599999999999998
aF39.466666666666669
aF41.633333333333333
aF37.333333333333343
aF38.283333333333331
aF38.5
aF31.666666666666664
asg21
(lp320
F34.633333333333333
asg23
(lp321
F27.883333333333326
aF29.266666666666666
aF34.766666666666666
aF30.866666666666667
aF33.433333333333337
aF34.966666666666669
aF38.950000000000003
aF31.666666666666664
asg25
(lp322
F27.883333333333326
aF38.950000000000003
asg27
(lp323
F37.100000000000009
aF32.016666666666673
aF33.316666666666663
aF38.399999999999999
aF33.950000000000003
aF31.599999999999998
aF37.450000000000003
aF33.433333333333337
aF37.549999999999997
aF38.5
aF39.38333333333334
aF39.400000000000006
asg29
(lp324
F32.016666666666673
asg31
(lp325
F33.316666666666663
asg33
(lp326
I3
aI1
aI4
aI1
aI3
aI2
aI3
aI2
aI2
aI3
aI3
aI4
aI1
aI1
aI1
aI1
aI2
aI3
aI4
aI4
aI3
aI4
aI2
aI4
aI3
aI4
aI5
aI2
aI1
aI3
aI0
aI5
aI4
aI3
aI1
aI2
aI2
aI3
aI2
aI3
aI4
aI4
aI3
aI3
aI2
aI1
aI1
aI1
aI5
aI4
aI2
aI2
aI3
aI2
aI2
asg35
g7
(g9
S'\x8dt\xd8H\x87mB@'
tRp327
sg37
(lp328
F37.100000000000009
aF32.016666666666673
aF40.700000000000003
aF33.316666666666663
aF38.399999999999999
aF27.883333333333326
aF29.266666666666666
aF34.633333333333333
aF33.950000000000003
aF30.066666666666677
aF31.599999999999998
aF39.466666666666669
aF41.633333333333333
aF34.766666666666666
aF37.333333333333343
aF30.866666666666667
aF38.283333333333331
aF37.450000000000003
aF33.433333333333337
aF37.549999999999997
aF38.5
aF39.38333333333334
aF34.966666666666669
aF35.066666666666663
aF39.400000000000006
aF38.950000000000003
aF31.666666666666664
asg39
g7
(g9
S'\xe4\x17K~\xb1\xc4B@'
tRp329
sg41
(lp330
F36.483333333333334
aF29.983333333333334
aF37.516666666666666
aF30.933333333333334
aF38.86666666666666
aF37.100000000000001
aF38.266666666666666
aF35.38333333333334
aF41.533333333333331
aF29.466666666666665
aF37.266666666666666
aF34.649999999999999
aF38.766666666666673
aF37.533333333333331
aF32.25
aF34.700000000000003
aF33.616666666666667
aF37.783333333333331
aF40.583333333333336
aF37.25
aF43.783333333333331
aF39.88333333333334
aF38.066666666666663
aF42.633333333333333
aF40.583333333333329
aF40.049999999999997
aF38.583333333333329
aF37.733333333333334
aF36.049999999999997
aF39.899999999999999
aF38.549999999999997
aF38.116666666666667
aF37.799999999999997
aF36.700000000000003
aF34.283333333333331
aF38.516666666666666
aF37.25
aF37.950000000000003
aF35.083333333333329
aF40.683333333333337
aF38.049999999999997
aF40.099999999999994
aF40.349999999999994
aF38.483333333333334
aF39.483333333333334
aF39.100000000000001
aF31.216666666666669
aF40.61666666666666
aF41.266666666666666
aF39.716666666666661
aF38.550000000000004
aF27.649999999999999
aF41.283333333333331
aF40.366666666666667
aF36.150000000000006
asg43
(lp331
F0.13477088948787058
aF0.15616866215512751
aF0.073710073710073709
aF0.15007503751875939
aF0.052083333333333336
aF0.17931858936043041
aF0.10250569476082005
aF0.028873917228103948
aF0.14727540500736375
aF0.13303769401330373
aF0.0949367088607595
aF0.076013513513513514
aF0.072057646116893512
aF0.11505273250239693
aF0.080357142857142835
aF0.16198704103671707
aF0.1044841097083152
aF0.053404539385847792
aF0.14955134596211364
aF0.13315579227696406
aF0.1038961038961039
aF0.050782903089293265
aF0.085795996186844609
aF0.0570342205323194
aF0.076142131979695424
aF0.10269576379974325
aF0.12631578947368421
asg45
g7
(g9
S'\xc0M1j\xf8\xbbA@'
tRp332
ssS'Giannis Antetokounmpo'
p333
(dp334
g4
(lp335
F0.12908777969018934
aF0.056364490371066216
aF0
aF0.029440628066732089
aF0.13321492007104796
aF0.099337748344370869
aF0.12279983626688497
aF0.10300429184549358
aF0.13460459899046551
aF0.075725704669751787
aF0.072522159548751006
aF0.057170080990948072
aF0.10186757215619695
aF0.031746031746031751
aF0.030581039755351678
aF0.078671328671328672
aF0.057636887608069162
aF0.049301561216105162
aF0
aF0.05188067444876783
aF0.10909090909090907
aF0.054844606946983544
aF0.10054461667364893
aF0.081044574515983792
aF0.052724077328646743
aF0.08226691042047532
aF0
aF0.04987531172069825
aF0.077386070507308682
aF0.14299332697807435
aF0.027675276752767528
aF0.072202166064981949
aF0.054446460980036297
aF0.050146259924780619
aF0.084190832553788592
aF0.071005917159763315
aF0.088148873653281098
aF0.056710775047258979
aF0.04856333468231485
aF0.07620660457239628
aF0.065466448445171854
aF0.111162575266327
aF0.049937578027465665
aF0.05591798695246971
aF0.023952095808383235
aF0.051150895140664961
aF0.029999999999999999
aF0.075503355704697989
aF0.050590219224283299
aF0.081855388813096855
aF0.056683986773736421
aF0.074472486553578826
aF0
aF0.094711917916337818
aF0.030659172202350544
aF0.085744908896034297
asg6
g7
(g9
S'*k\xca\x9a\xb2\xa6\x08@'
tRp336
sg11
g7
(g9
S'%I\x92$I\x92\x03@'
tRp337
sg13
(lp338
I5
aI3
aI4
aI5
aI4
aI4
aI4
aI4
aI4
aI5
aI5
aI4
aI4
aI3
aI4
aI6
aI6
aI5
aI4
aI5
aI4
aI4
aI1
aI5
aI3
aI4
aI6
aI4
aI4
aI5
asg15
g7
(g9
S'\x11\x11\x11\x11\x11\x11\x11@'
tRp339
sg17
(lp340
F21.183333333333337
aF35.300000000000004
aF34.5
asg19
(lp341
F35.083333333333336
aF23.61666666666666
aF31.999999999999996
aF33.216666666666669
aF40.016666666666666
aF27.966666666666672
aF27.766666666666673
asg21
(lp342
sg23
(lp343
F25.06666666666667
aF30.733333333333334
aF34.75
aF23.61666666666666
aF39.050000000000004
aF38.166666666666671
aF28.866666666666664
aF34.450000000000003
aF31.449999999999996
aF27.766666666666673
asg25
(lp344
sg27
(lp345
F21.183333333333337
aF28.866666666666664
aF33.866666666666674
aF34.349999999999994
aF38.333333333333336
aF42.350000000000001
asg29
(lp346
F28.999999999999993
aF28.866666666666664
asg31
(lp347
F33.833333333333329
aF34.516666666666666
aF23.61666666666666
aF38.966666666666669
aF28.866666666666664
aF35.700000000000003
aF34.883333333333333
aF34.616666666666674
aF40.783333333333331
asg33
(lp348
I5
aI2
aI0
aI1
aI5
aI4
aI5
aI4
aI4
aI3
aI3
aI2
aI4
aI1
aI1
aI3
aI2
aI2
aI0
aI2
aI1
aI2
aI4
aI3
aI2
aI3
aI0
aI2
aI3
aI5
aI1
aI3
aI2
aI2
aI3
aI3
aI3
aI2
aI2
aI3
aI2
aI4
aI2
aI2
aI1
aI2
aI1
aI3
aI2
aI2
aI2
aI3
aI0
aI4
aI1
aI4
asg35
g7
(g9
S'9\xe4\ryC\xdeA@'
tRp349
sg37
(lp350
F33.833333333333329
aF25.06666666666667
aF21.183333333333337
aF34.516666666666666
aF35.300000000000004
aF35.083333333333336
aF30.733333333333334
aF34.5
aF34.75
aF28.999999999999993
aF23.61666666666666
aF38.966666666666669
aF39.050000000000004
aF31.999999999999996
aF38.166666666666671
aF28.866666666666664
aF35.700000000000003
aF33.216666666666669
aF33.866666666666674
aF34.349999999999994
aF34.450000000000003
aF31.449999999999996
aF34.883333333333333
aF40.016666666666666
aF27.966666666666672
aF27.766666666666673
aF34.616666666666674
aF38.333333333333336
aF42.350000000000001
aF40.783333333333331
asg39
g7
(g9
S'P\x07uP\x07yB@'
tRp351
sg41
(lp352
F38.733333333333327
aF35.483333333333341
aF35.216666666666661
aF33.966666666666669
aF37.533333333333331
aF40.266666666666666
aF40.716666666666669
aF38.833333333333329
aF29.716666666666665
aF39.616666666666667
aF41.366666666666667
aF34.983333333333334
aF39.266666666666666
aF31.499999999999996
aF32.700000000000003
aF38.133333333333333
aF34.700000000000003
aF40.566666666666677
aF41.216666666666669
aF38.550000000000004
aF9.1666666666666679
aF36.466666666666669
aF39.783333333333331
aF37.016666666666666
aF37.933333333333337
aF36.466666666666669
aF39.433333333333337
aF40.100000000000001
aF38.766666666666666
aF34.966666666666669
aF36.133333333333333
aF41.549999999999997
aF36.733333333333334
aF39.883333333333326
aF35.633333333333333
aF42.25
aF34.033333333333331
aF35.266666666666666
aF41.183333333333337
aF39.36666666666666
aF30.549999999999997
aF35.983333333333334
aF40.050000000000004
aF35.766666666666666
aF41.75
aF39.100000000000001
aF33.333333333333336
aF39.733333333333334
aF39.533333333333339
aF24.433333333333334
aF35.283333333333331
aF40.283333333333331
aF36.450000000000003
aF42.233333333333327
aF32.61666666666666
aF46.649999999999999
asg43
(lp353
F0.14778325123152711
aF0.11968085106382977
aF0.18882769472856015
aF0.14485755673587639
aF0.11331444759206798
aF0.11401425178147268
aF0.13015184381778741
aF0.11594202898550725
aF0.11510791366906475
aF0.17241379310344832
aF0.21171489061397325
aF0.10265183917878529
aF0.1024327784891165
aF0.093750000000000014
aF0.10480349344978164
aF0.20785219399538107
aF0.16806722689075629
aF0.15052684395383842
aF0.11811023622047241
aF0.14556040756914121
aF0.11611030478955006
aF0.12718600953895073
aF0.02866698518872432
aF0.12494793835901707
aF0.1072705601907032
aF0.14405762304921965
aF0.17332691381800669
aF0.10434782608695652
aF0.094451003541912631
aF0.12259910093992644
asg45
g7
(g9
S'\xa3\x91\x80o^\xbd@@'
tRp354
ssS'Russell Westbrook'
p355
(dp356
g4
(lp357
F0.0549702244617499
aF0.049607275733774291
aF0.089153046062407121
aF0.12251148545176108
aF0.10575793184488837
aF0.053144375553587253
aF0
aF0
aF0.056603773584905655
aF0.084467386203660261
aF0.0285171102661597
aF0.082493125572868906
aF0.055376095985233041
aF0.026654820079964461
aF0.029527559055118117
aF0.082872928176795591
aF0.036563071297989032
aF0.056470588235294113
aF0.059553349875930514
aF0.02870813397129187
aF0
aF0.12829650748396293
aF0
aF0.083526682134570748
aF0.053309640159928923
aF0.027051397655545536
aF0.027803521779425393
aF0.068298235628912921
aF0.14191106906338694
aF0.08411214953271029
aF0.056872037914691934
aF0.082493125572868933
aF0.033994334277620407
aF0.053120849933598932
aF0.085308056872037907
aF0.11304757418747058
aF0.13458950201884251
aF0
aF0
aF0.028341993386868207
aF0.054225033890646195
aF0.025784271594327463
aF0
aF0.10503282275711161
aF0.11753183153770812
aF0.027548209366391185
aF0.08645533141210375
aF0.071856287425149698
aF0.027777777777777783
aF0.035906642728904849
aF0.10265183917878529
aF0
aF0.05432322317790856
aF0.027027027027027029
aF0.073846153846153853
aF0.10657193605683837
aF0.027063599458728008
aF0.088192062714355715
aF0.072522159548751006
aF0.077821011673151752
aF0.051679586563307491
aF0.11942675159235669
asg6
g7
(g9
S'\xb9#\xee\x88;\xe2\x02@'
tRp358
sg11
g7
(g9
S'\x84\x10B\x08!\x84\x00@'
tRp359
sg13
(lp360
I3
aI2
aI2
aI5
aI4
aI3
aI2
aI3
aI4
aI3
aI2
aI5
aI3
aI2
aI3
aI3
aI4
aI3
aI4
aI2
aI5
aI1
aI5
aI2
asg15
g7
(g9
S'\x00\x00\x00\x00\x00\x00\t@'
tRp361
sg17
(lp362
sg19
(lp363
F26.649999999999999
aF35.266666666666666
aF35.600000000000001
aF36.233333333333334
aF37.116666666666667
aF18.316666666666666
asg21
(lp364
sg23
(lp365
sg25
(lp366
sg27
(lp367
F28.866666666666667
aF36.233333333333334
aF33.799999999999997
aF35.000000000000007
aF35.933333333333337
aF27.216666666666669
asg29
(lp368
sg31
(lp369
F38.766666666666666
aF33.56666666666667
aF37.333333333333329
aF30.63333333333334
aF34.016666666666666
aF32.81666666666667
aF33.31666666666667
aF35.616666666666667
aF33.733333333333334
aF35.149999999999999
aF36.200000000000003
aF36.400000000000006
asg33
(lp370
I2
aI2
aI3
aI4
aI3
aI2
aI0
aI0
aI2
aI3
aI1
aI3
aI2
aI1
aI1
aI3
aI1
aI2
aI2
aI1
aI0
aI3
aI0
aI3
aI2
aI1
aI1
aI2
aI5
aI3
aI2
aI3
aI1
aI2
aI3
aI4
aI5
aI0
aI0
aI1
aI2
aI1
aI0
aI4
aI4
aI1
aI3
aI2
aI1
aI1
aI4
aI0
aI2
aI1
aI2
aI4
aI1
aI3
aI3
aI3
aI2
aI5
asg35
g7
(g9
S'\x97g\x7fsyFA@'
tRp371
sg37
(lp372
F28.866666666666667
aF26.649999999999999
aF38.766666666666666
aF35.266666666666666
aF33.56666666666667
aF36.233333333333334
aF37.333333333333329
aF35.600000000000001
aF30.63333333333334
aF34.016666666666666
aF32.81666666666667
aF33.799999999999997
aF35.000000000000007
aF33.31666666666667
aF35.616666666666667
aF36.233333333333334
aF33.733333333333334
aF37.116666666666667
aF35.933333333333337
aF35.149999999999999
aF27.216666666666669
aF36.200000000000003
aF36.400000000000006
aF18.316666666666666
asg39
g7
(g9
S'\x1b\x9f\xaf\xf1\xf9zA@'
tRp373
sg41
(lp374
F36.383333333333326
aF40.316666666666663
aF33.650000000000006
aF32.650000000000006
aF28.366666666666667
aF37.633333333333326
aF36.100000000000001
aF33.850000000000001
aF35.333333333333336
aF35.516666666666666
aF35.066666666666663
aF36.366666666666674
aF36.116666666666667
aF37.516666666666666
aF33.86666666666666
aF36.199999999999996
aF27.349999999999998
aF35.416666666666671
aF33.583333333333336
aF34.833333333333329
aF36.649999999999999
aF23.383333333333333
aF28.800000000000001
aF35.916666666666671
aF37.516666666666666
aF36.966666666666669
aF35.966666666666669
aF29.283333333333331
aF35.233333333333334
aF35.666666666666664
aF35.166666666666671
aF36.366666666666667
aF29.416666666666657
aF37.650000000000006
aF35.166666666666671
aF35.383333333333326
aF37.150000000000006
aF24.200000000000003
aF37.75
aF35.283333333333339
aF36.883333333333326
aF38.783333333333331
aF36.86666666666666
aF38.083333333333329
aF34.033333333333339
aF36.299999999999997
aF34.699999999999996
aF27.833333333333336
aF35.999999999999993
aF27.850000000000001
aF38.966666666666669
aF36.350000000000001
aF36.816666666666663
aF37
aF27.083333333333332
aF37.533333333333331
aF36.950000000000003
aF34.016666666666666
aF41.366666666666667
aF38.549999999999997
aF38.700000000000003
aF41.866666666666667
asg43
(lp375
F0.10392609699769052
aF0.075046904315197005
aF0.051590713671539126
aF0.14177693761814744
aF0.11916583912611717
aF0.082796688132474705
aF0.053571428571428575
aF0.084269662921348312
aF0.13057671381936886
aF0.088192062714355715
aF0.060944641950228536
aF0.14792899408284024
aF0.085714285714285701
aF0.060030015007503747
aF0.084230229293401959
aF0.082796688132474705
aF0.11857707509881422
aF0.080826223619218679
aF0.11131725417439702
aF0.056899004267425321
aF0.18371096142069809
aF0.027624309392265192
aF0.13736263736263735
aF0.1091901728844404
asg45
g7
(g9
S'-\xd8\x82-\xd8\xbe@@'
tRp376
ssS'Mike Conley'
p377
(dp378
g4
(lp379
F0.084745762711864431
aF0.060180541624874621
aF0.030060120240480964
aF0.032661948829613499
aF0.033240997229916899
aF0.03325942350332594
aF0
aF0.052886734244160426
aF0.070175438596491224
aF0.029821073558648114
aF0
aF0.043731778425655975
aF0
aF0.034904013961605584
aF0.035026269702276708
aF0.097139773340528854
aF0.17009213323883771
aF0.034642032332563508
aF0.03768844221105528
aF0
aF0.03110419906687403
aF0.027573529411764705
aF0.14395393474088292
aF0.054869684499314127
aF0.051701852649719944
aF0.08219178082191779
aF0.065395095367847419
aF0.028901734104046249
aF0.027855153203342621
aF0
aF0.07071302298173246
aF0.061006609049313681
aF0.037476577139287946
aF0
aF0.054894784995425439
aF0
aF0
aF0.080393032603841008
aF0.030456852791878177
aF0.062272963155163452
aF0.028208744710860365
aF0.051020408163265314
aF0.11167985109353189
aF0.06269592476489029
aF0.082949308755760384
aF0.029895366218236172
aF0
aF0.055452865064695017
aF0.026362038664323371
aF0.0875486381322957
aF0.083955223880597007
aF0
aF0.12820512820512822
aF0
aF0.06666666666666668
aF0.026642984014209593
aF0
aF0.02835538752362949
aF0.089086859688195991
asg6
g7
(g9
S'\xcd\xcc\xcc\xcc\xcc\xcc\xfc?'
tRp380
sg11
g7
(g9
S'N\xea\xbe<\xb6"\xf8?'
tRp381
sg13
(lp382
I5
aI2
aI3
aI2
aI5
aI2
aI3
aI4
aI5
aI2
aI3
aI2
aI1
aI1
aI3
aI3
asg15
g7
(g9
S'\x00\x00\x00\x00\x00\x00\x07@'
tRp383
sg17
(lp384
sg19
(lp385
F30.849999999999998
aF40.116666666666667
asg21
(lp386
F29.63333333333334
asg23
(lp387
F35.800000000000004
aF36.299999999999997
asg25
(lp388
F20.050000000000001
asg27
(lp389
F34.016666666666666
aF39.133333333333333
asg29
(lp390
F29.63333333333334
aF36.849999999999994
asg31
(lp391
F37.233333333333334
aF36.61666666666666
aF36.100000000000001
aF41.36666666666666
aF31.199999999999992
aF36.56666666666667
aF32.916666666666664
asg33
(lp392
I2
aI2
aI1
aI1
aI1
aI1
aI0
aI2
aI2
aI1
aI0
aI1
aI0
aI1
aI1
aI3
aI4
aI1
aI1
aI0
aI1
aI1
aI5
aI2
aI2
aI3
aI2
aI1
aI1
aI0
aI2
aI2
aI1
aI0
aI2
aI0
aI0
aI3
aI1
aI2
aI1
aI2
aI4
aI2
aI3
aI1
aI0
aI2
aI1
aI3
aI3
aI0
aI3
aI0
aI2
aI1
aI0
aI1
aI4
asg35
g7
(g9
S':&x0O\x94@@'
tRp393
sg37
(lp394
F29.63333333333334
aF37.233333333333334
aF36.61666666666666
aF20.050000000000001
aF36.100000000000001
aF34.016666666666666
aF30.849999999999998
aF41.36666666666666
aF39.133333333333333
aF35.800000000000004
aF36.299999999999997
aF31.199999999999992
aF36.56666666666667
aF40.116666666666667
aF32.916666666666664
aF36.849999999999994
asg39
g7
(g9
S'\xf04\x05v\xc8_@@'
tRp395
sg41
(lp396
F23.599999999999994
aF33.233333333333334
aF33.266666666666666
aF30.616666666666667
aF30.083333333333332
aF30.06666666666667
aF30.666666666666671
aF37.816666666666663
aF28.5
aF33.533333333333331
aF35.100000000000001
aF22.866666666666667
aF34.333333333333336
aF28.649999999999999
aF28.550000000000001
aF30.88333333333334
aF23.516666666666666
aF28.866666666666667
aF26.533333333333331
aF29.299999999999994
aF32.149999999999999
aF36.266666666666666
aF34.733333333333334
aF36.450000000000003
aF38.683333333333337
aF36.500000000000007
aF30.583333333333332
aF34.599999999999994
aF35.899999999999999
aF35.516666666666673
aF28.283333333333339
aF32.783333333333331
aF26.68333333333333
aF34.400000000000006
aF36.43333333333333
aF35.483333333333334
aF36.450000000000003
aF37.316666666666663
aF32.833333333333329
aF32.116666666666674
aF35.450000000000003
aF39.199999999999996
aF35.816666666666663
aF31.899999999999999
aF36.166666666666657
aF33.450000000000003
aF35.866666666666667
aF36.066666666666663
aF37.933333333333337
aF34.266666666666673
aF35.733333333333334
aF33.716666666666669
aF23.399999999999999
aF17.299999999999997
aF29.999999999999996
aF37.533333333333331
aF34.033333333333331
aF35.266666666666666
aF44.899999999999999
asg43
(lp397
F0.16872890888638917
aF0.05371530886302596
aF0.081929904415111526
aF0.099750623441396499
aF0.13850415512465372
aF0.058794708476237141
aF0.097244732576985418
aF0.096696212731668021
aF0.12776831345826234
aF0.055865921787709494
aF0.082644628099173556
aF0.064102564102564125
aF0.027347310847766634
aF0.024927295388450354
aF0.091139240506329114
aF0.081411126187245608
asg45
g7
(g9
S'\x00\x00\x00\x00\x00VA@'
tRp398
ssS'DeAndre Jordan'
p399
(dp400
g4
(lp401
F0.035587188612099641
aF0.094687006838506033
aF0.037037037037037035
aF0.087976539589442834
aF0.040214477211796253
aF0.07326007326007325
aF0.11678832116788321
aF0.090588827377956704
aF0.09355509355509356
aF0.057553956834532377
aF0.033222591362126248
aF0.029806259314456032
aF0.094488188976377951
aF0.057915057915057917
aF0.0339943342776204
aF0.077021822849807436
aF0.088845014807502468
aF0.036231884057971023
aF0.14678899082568808
aF0.080536912751677847
aF0.054719562243502058
aF0.092402464065708428
aF0.056444026340545628
aF0.090497737556561084
aF0.057416267942583726
aF0
aF0.079103493737640085
aF0.032362459546925564
aF0.070093457943925228
aF0.096566523605150209
aF0.12133468149646107
aF0.053097345132743376
aF0.056523787093735289
aF0.035169988276670575
aF0.13172338090010974
aF0.056764427625354774
aF0.11100832562442184
aF0.080500894454382826
aF0.082041932543299917
aF0
aF0.035971223021582732
aF0.042887776983559681
aF0.11461318051575929
aF0.033057851239669422
aF0.08600095556617296
aF0.051085568326947627
aF0.055096418732782371
aF0.081743869209809264
aF0.081300813008130093
asg6
g7
(g9
S'\x00\x00\x00\x00\x00\x00\x06@'
tRp402
sg11
g7
(g9
S'^N\xc1\xcb)x\x01@'
tRp403
sg13
(lp404
I5
aI5
aI4
aI3
aI2
aI3
aI3
aI5
aI2
aI1
aI4
aI4
aI3
aI2
aI3
aI4
aI3
aI3
aI2
aI4
aI5
aI3
aI4
aI4
aI4
aI3
aI1
aI4
aI3
aI4
aI4
aI1
aI4
aI3
aI6
aI5
aI4
aI5
aI3
asg15
g7
(g9
S'\x14;\xb1\x13;\xb1\x0b@'
tRp405
sg17
(lp406
F24.783333333333339
asg19
(lp407
F35.783333333333331
aF23.116666666666667
aF35.616666666666667
aF33.566666666666663
aF27.199999999999999
aF31.166666666666668
aF28.183333333333337
aF31.149999999999999
aF32.116666666666667
aF25.683333333333334
aF38.333333333333329
asg21
(lp408
sg23
(lp409
F28.199999999999996
aF34.88333333333334
aF30.116666666666671
aF30.766666666666669
aF28.183333333333337
aF32.116666666666667
aF23.983333333333331
aF42.116666666666667
asg25
(lp410
sg27
(lp411
F31.31666666666667
aF29.983333333333334
aF23.983333333333334
aF33.366666666666674
aF37.150000000000006
aF26.033333333333335
aF23.116666666666667
aF35.083333333333336
aF38.833333333333329
aF39.25
aF22.666666666666668
aF31.150000000000006
aF32.116666666666667
aF30.883333333333326
aF25.683333333333334
aF38.233333333333334
aF33.316666666666663
aF36.06666666666667
aF34.5
aF39.516666666666666
asg29
(lp412
sg31
(lp413
F28.199999999999996
aF35.216666666666669
aF33.166666666666657
aF35.083333333333336
aF33.833333333333336
aF34.5
aF38.716666666666669
asg33
(lp414
I1
aI3
aI1
aI3
aI1
aI2
aI4
aI3
aI3
aI2
aI1
aI1
aI3
aI2
aI1
aI2
aI3
aI1
aI4
aI3
aI2
aI3
aI2
aI1
aI2
aI0
aI2
aI1
aI2
aI3
aI4
aI2
aI2
aI1
aI4
aI2
aI4
aI3
aI3
aI0
aI1
aI1
aI4
aI1
aI3
aI2
aI2
aI3
aI3
asg35
g7
(g9
S'\xdd\n\xc5\xadP\xdc?@'
tRp415
sg37
(lp416
F28.199999999999996
aF31.31666666666667
aF35.783333333333331
aF29.983333333333334
aF23.983333333333334
aF33.366666666666674
aF34.88333333333334
aF37.150000000000006
aF26.033333333333335
aF35.216666666666669
aF23.116666666666667
aF33.166666666666657
aF35.083333333333336
aF35.616666666666667
aF33.833333333333336
aF38.833333333333329
aF30.116666666666671
aF30.766666666666669
aF33.566666666666663
aF39.25
aF27.199999999999999
aF31.166666666666668
aF22.666666666666668
aF24.783333333333339
aF31.150000000000006
aF28.183333333333337
aF31.149999999999999
aF32.116666666666667
aF30.883333333333326
aF25.683333333333334
aF38.233333333333334
aF33.316666666666663
aF23.983333333333331
aF36.06666666666667
aF34.5
aF38.716666666666669
aF42.116666666666667
aF38.333333333333329
aF39.516666666666666
asg39
g7
(g9
S'\x1d\x8e\x98\xf6D\x86?@'
tRp417
sg41
(lp418
F28.100000000000005
aF31.683333333333337
aF27
aF34.099999999999994
aF24.866666666666664
aF27.300000000000004
aF34.25
aF33.116666666666674
aF32.066666666666663
aF34.75
aF30.099999999999998
aF33.550000000000004
aF31.75
aF34.533333333333331
aF29.416666666666664
aF25.966666666666669
aF33.766666666666666
aF27.599999999999994
aF27.25
aF37.25
aF36.549999999999997
aF32.466666666666661
aF35.43333333333333
aF11.050000000000001
aF34.833333333333336
aF23.416666666666664
aF25.283333333333331
aF30.900000000000006
aF28.533333333333339
aF31.06666666666667
aF32.966666666666669
aF37.666666666666657
aF35.383333333333326
aF28.433333333333334
aF30.366666666666674
aF35.233333333333334
aF36.033333333333331
aF37.266666666666666
aF36.566666666666663
aF26.633333333333336
aF27.800000000000001
aF23.31666666666667
aF34.900000000000006
aF30.25
aF34.883333333333333
aF39.150000000000006
aF36.299999999999997
aF36.700000000000003
aF36.899999999999991
asg43
(lp419
F0.17730496453900713
aF0.15965939329430545
aF0.11178388448998604
aF0.10005558643690939
aF0.083391243919388458
aF0.089910089910089891
aF0.086000955566172946
aF0.13458950201884251
aF0.076824583866837381
aF0.028395646000946521
aF0.17303532804614274
aF0.12060301507537692
aF0.085510688836104506
aF0.056153486195601308
aF0.088669950738916245
aF0.10300429184549358
aF0.099612617598229092
aF0.097508125677139748
aF0.059582919563058598
aF0.10191082802547771
aF0.18382352941176472
aF0.096256684491978606
aF0.1764705882352941
aF0.16139878950907866
aF0.12841091492776885
aF0.10644589000591365
aF0.032102728731942219
aF0.12454592631032693
aF0.097139773340528895
aF0.15574302401038287
aF0.1046207497820401
aF0.03001500750375188
aF0.16678248783877694
aF0.083179297597042512
aF0.17391304347826086
aF0.12914334911752043
aF0.094974277799762558
aF0.13043478260869568
aF0.075917334458034585
asg45
g7
(g9
S'B6dC6$@@'
tRp420
ssS'James Harden'
p421
(dp422
g4
(lp423
F0.1075268817204301
aF0.11157601115760113
aF0.10358221838584378
aF0.078602620087336234
aF0.029469548133595289
aF0.10835214446952594
aF0.050251256281407038
aF0.024489795918367349
aF0.025684931506849317
aF0.060575466935890963
aF0.027223230490018149
aF0.08591885441527447
aF0.053144375553587246
aF0.098684210526315791
aF0.05002084201750729
aF0.086998550024166274
aF0.085388994307400365
aF0.083798882681564255
aF0.090225563909774431
aF0.056630486078338836
aF0
aF0.025052192066805843
aF0.07792207792207792
aF0
aF0.059113300492610849
aF0.10554089709762533
aF0.023818975784041286
aF0.028763183125599234
aF0.13289036544850497
aF0.066777963272120197
aF0.029717682020802379
aF0.047524752475247525
aF0.023771790808240885
aF0.046801872074883004
aF0.11713030746705708
aF0.079260237780713352
aF0.079400088222320253
aF0
aF0.081706763504312302
aF0.12691697514542569
aF0.076271186440677957
aF0.054495912806539502
aF0.085877862595419852
aF0.088539104771273996
aF0.067898906073179929
aF0.081044574515983792
aF0.10217113665389528
aF0.063025210084033598
aF0.077753779697624203
aF0.077519379844961239
aF0.027777777777777776
aF0.10139416983523449
aF0.068454078722190531
aF0.11980830670926518
aF0.026990553306342781
aF0.028462998102466788
aF0.051216389244558264
aF0.055045871559633024
aF0.050104384133611693
aF0.024875621890547265
aF0.0757257046697518
aF0.050251256281407038
aF0.064171122994652399
aF0.050526315789473683
aF0.081374321880650996
aF0.10126582278481013
aF0.052980132450331126
aF0.12340600575894693
aF0.026408450704225352
aF0.049484536082474224
aF0.086165629487793216
aF0.077720207253886009
aF0.10652463382157125
aF0.055555555555555566
aF0.20519835841313269
aF0.08591885441527447
aF0.029083858458555503
aF0.13351134846461951
aF0.13054830287206268
aF0.076335877862595422
aF0.090805902383654935
aF0.25
aF0.11887072808320949
aF0.10000000000000001
aF0.11577424023154846
asg6
g7
(g9
S'\x00\x00\x00\x00\x00\x00\x06@'
tRp424
sg11
g7
(g9
S'\xe5\xe4\xe4\xe4\xe4\xe4\x04@'
tRp425
sg13
(lp426
I3
aI5
aI5
aI5
aI4
aI3
aI6
asg15
g7
(g9
S'n\xdb\xb6m\xdb\xb6\x11@'
tRp427
sg17
(lp428
sg19
(lp429
F36.200000000000003
aF38.400000000000006
asg21
(lp430
sg23
(lp431
sg25
(lp432
sg27
(lp433
F36.733333333333334
aF31.816666666666663
aF35.566666666666663
asg29
(lp434
sg31
(lp435
F36.716666666666661
aF36.599999999999994
asg33
(lp436
I4
aI4
aI4
aI3
aI1
aI4
aI2
aI1
aI1
aI2
aI1
aI3
aI2
aI4
aI2
aI3
aI3
aI3
aI3
aI2
aI0
aI1
aI3
aI0
aI2
aI4
aI1
aI1
aI4
aI2
aI1
aI2
aI1
aI2
aI4
aI3
aI3
aI0
aI3
aI4
aI3
aI2
aI3
aI3
aI3
aI3
aI4
aI2
aI3
aI3
aI1
aI4
aI2
aI5
aI1
aI1
aI2
aI2
aI2
aI1
aI3
aI2
aI2
aI2
aI3
aI4
aI2
aI5
aI1
aI2
aI3
aI3
aI4
aI2
aI5
aI3
aI1
aI5
aI5
aI3
aI4
aI3
aI4
aI4
aI4
asg35
g7
(g9
S'2\x05\xa1\x7ftKB@'
tRp437
sg37
(lp438
F36.716666666666661
aF36.733333333333334
aF36.200000000000003
aF31.816666666666663
aF35.566666666666663
aF38.400000000000006
aF36.599999999999994
asg39
g7
(g9
S'\xd2\x048k\x9eQB@'
tRp439
sg41
(lp440
F37.200000000000003
aF35.849999999999994
aF38.61666666666666
aF38.166666666666671
aF33.93333333333333
aF36.916666666666671
aF39.799999999999997
aF40.833333333333329
aF38.93333333333333
aF33.016666666666666
aF36.733333333333334
aF34.916666666666664
aF37.633333333333333
aF40.533333333333331
aF39.983333333333334
aF34.483333333333327
aF35.13333333333334
aF35.799999999999997
aF33.25
aF35.31666666666667
aF29.783333333333331
aF39.916666666666671
aF38.5
aF29.866666666666667
aF33.833333333333329
aF37.899999999999999
aF41.983333333333334
aF34.766666666666666
aF30.100000000000001
aF29.949999999999999
aF33.649999999999999
aF42.083333333333336
aF42.06666666666667
aF42.733333333333327
aF34.150000000000006
aF37.849999999999994
aF37.783333333333331
aF40.683333333333337
aF36.716666666666669
aF31.516666666666669
aF39.333333333333336
aF36.700000000000003
aF34.93333333333333
aF33.883333333333326
aF44.183333333333337
aF37.016666666666666
aF39.149999999999999
aF31.733333333333338
aF38.583333333333329
aF38.700000000000003
aF36
aF39.449999999999996
aF29.216666666666669
aF41.733333333333334
aF37.049999999999997
aF35.13333333333334
aF39.049999999999997
aF36.333333333333336
aF39.916666666666664
aF40.199999999999996
aF39.61666666666666
aF39.799999999999997
aF31.166666666666668
aF39.583333333333336
aF36.866666666666667
aF39.5
aF37.75
aF40.516666666666666
aF37.866666666666667
aF40.416666666666671
aF34.816666666666663
aF38.600000000000001
aF37.549999999999997
aF35.999999999999993
aF24.366666666666667
aF34.916666666666664
aF34.383333333333333
aF37.449999999999996
aF38.299999999999997
aF39.299999999999997
aF44.050000000000004
aF12
aF33.650000000000006
aF40
aF34.550000000000004
asg43
(lp441
F0.081706763504312316
aF0.13611615245009073
aF0.13812154696132595
aF0.15715034049240442
aF0.11246485473289598
aF0.078124999999999986
aF0.16393442622950821
asg45
g7
(g9
S'\t\x9c\xc0\t\x9c\x00B@'
tRp442
ssS'Anthony Davis'
p443
(dp444
g4
(lp445
F0.097008892481810827
aF0.050041701417848201
aF0.031662269129287594
aF0.053811659192825115
aF0
aF0.054619936276741013
aF0.072376357056694804
aF0
aF0.052173913043478265
aF0.054520672421626525
aF0.080393032603841008
aF0.05400540054005401
aF0.025962786672436174
aF0.023446658851113716
aF0.074534161490683232
aF0.049382716049382713
aF0.069204152249134954
aF0.025985275010827199
aF0.024650780608052585
aF0.051129100979974432
aF0
aF0.056791292001893048
aF0.1091901728844404
aF0.086998550024166274
aF0.049545829892650696
aF0
aF0.069044879171461446
aF0.071146245059288529
aF0.042735042735042736
aF0.034582132564841495
aF0.12409513960703206
aF0.050125313283208024
aF0.027497708524289649
aF0.073559460563955861
aF0.074104569781803215
aF0.082758620689655171
aF0.098846787479406936
aF0.099173553719008281
aF0.060821084642676139
aF0.05104210974053594
aF0.054819552306989483
aF0.053619302949061663
aF0
aF0.053619302949061656
aF0.05842259006815969
aF0.034482758620689648
aF0.069150979638878216
aF0.028409090909090908
aF0.045558086560364475
aF0.10575793184488837
aF0.024271844660194174
aF0.059464816650148647
aF0.049958368026644467
aF0.07072691552062868
asg6
g7
(g9
S'c\xc9/\x96\xfcb\x01@'
tRp446
sg11
g7
(g9
S'\xc7q\x1c\xc7q\x1c\xff?'
tRp447
sg13
(lp448
I4
aI1
aI4
aI4
aI2
aI4
aI5
aI3
aI4
aI5
aI4
aI2
aI1
aI1
aI2
aI4
aI1
aI2
aI2
aI1
aI2
asg15
g7
(g9
S'\x86a\x18\x86a\x18\x06@'
tRp449
sg17
(lp450
sg19
(lp451
F39.200000000000003
aF37.066666666666663
aF36.866666666666667
aF38.766666666666666
aF30.049999999999997
aF39.18333333333333
aF40.25
aF23.933333333333334
asg21
(lp452
sg23
(lp453
F29.683333333333334
aF35.766666666666666
aF40
aF33.36666666666666
aF32.216666666666669
asg25
(lp454
sg27
(lp455
F30.666666666666664
aF35
aF39.200000000000003
aF36.43333333333333
aF29.683333333333334
aF27.033333333333331
aF32.216666666666669
aF40.283333333333331
aF34.68333333333333
aF40.25
aF35.850000000000001
asg29
(lp456
F37.066666666666663
asg31
(lp457
F41.299999999999997
asg33
(lp458
I4
aI2
aI1
aI2
aI0
aI2
aI3
aI0
aI2
aI2
aI3
aI1
aI1
aI1
aI3
aI2
aI3
aI1
aI1
aI2
aI0
aI2
aI4
aI3
aI2
aI0
aI2
aI3
aI1
aI1
aI2
aI2
aI1
aI3
aI3
aI3
aI4
aI4
aI2
aI2
aI2
aI2
aI0
aI2
aI1
aI1
aI3
aI1
aI2
aI3
aI1
aI2
aI2
aI3
asg35
g7
(g9
S'\xdd\xd8;\x055\xebA@'
tRp459
sg37
(lp460
F30.666666666666664
aF35
aF41.299999999999997
aF39.200000000000003
aF36.43333333333333
aF29.683333333333334
aF35.766666666666666
aF40
aF37.066666666666663
aF36.866666666666667
aF27.033333333333331
aF33.36666666666666
aF38.766666666666666
aF30.049999999999997
aF39.18333333333333
aF32.216666666666669
aF40.283333333333331
aF34.68333333333333
aF40.25
aF35.850000000000001
aF23.933333333333334
asg39
g7
(g9
S'B\xf5\x8c]\xbc\x0eB@'
tRp461
sg41
(lp462
F41.233333333333334
aF39.966666666666669
aF31.583333333333336
aF37.166666666666664
aF37.549999999999997
aF36.616666666666667
aF41.450000000000003
aF34.850000000000001
aF38.333333333333329
aF36.683333333333337
aF37.316666666666663
aF18.516666666666666
aF38.516666666666666
aF42.649999999999999
aF40.25
aF40.5
aF43.349999999999994
aF38.483333333333334
aF40.56666666666667
aF39.116666666666667
aF22.649999999999999
aF35.216666666666661
aF36.633333333333333
aF34.483333333333327
aF40.366666666666674
aF38.149999999999999
aF28.966666666666669
aF42.166666666666671
aF23.399999999999999
aF28.916666666666668
aF16.116666666666667
aF39.899999999999999
aF36.36666666666666
aF40.783333333333331
aF40.483333333333334
aF36.25
aF40.466666666666661
aF40.333333333333329
aF32.883333333333326
aF39.183333333333337
aF36.483333333333341
aF37.299999999999997
aF36.466666666666661
aF37.300000000000004
aF17.116666666666667
aF29.000000000000007
aF43.383333333333333
aF35.200000000000003
aF43.899999999999991
aF28.366666666666667
aF41.200000000000003
aF33.63333333333334
aF40.033333333333331
aF42.416666666666671
asg43
(lp463
F0.13043478260869565
aF0.028571428571428571
aF0.096852300242130762
aF0.1020408163265306
aF0.054894784995425439
aF0.13475575519371139
aF0.13979496738117428
aF0.074999999999999997
aF0.10791366906474821
aF0.13562386980108498
aF0.14796547472256474
aF0.05994005994005995
aF0.025795356835769563
aF0.033277870216306162
aF0.051042109740535947
aF0.12415933781686497
aF0.024824162184526273
aF0.057664584334454594
aF0.049689440993788817
aF0.027894002789400279
aF0.083565459610027856
asg45
g7
(g9
S'\xfd\xd8\x8f\xfd\xd8\x8fA@'
tRp464
ss.