(dp1
cnumpy.core.multiarray
scalar
p2
(cnumpy
dtype
p3
(S'S9'
I0
I1
tRp4
(I3
S'|'
NNNI9
I1
I0
tbS'Pau Gasol'
tRp5
F0.19
sg2
(g3
(S'S11'
I0
I1
tRp6
(I3
S'|'
NNNI11
I1
I0
tbS'Jodie Meeks'
tRp7
F0.072999999999999995
sg2
(g3
(S'S13'
I0
I1
tRp8
(I3
S'|'
NNNI13
I1
I0
tbS'Jarell Martin'
tRp9
F0.053999999999999999
sg2
(g3
(S'S16'
I0
I1
tRp10
(I3
S'|'
NNNI16
I1
I0
tbS'Derrick Williams'
tRp11
F0.085999999999999993
sg2
(g3
(S'S10'
I0
I1
tRp12
(I3
S'|'
NNNI10
I1
I0
tbS'Randy Foye'
tRp13
F0.0060000000000000001
sg2
(g3
(S'S11'
I0
I1
tRp14
(I3
S'|'
NNNI11
I1
I0
tbS'Mike Miller'
tRp15
F0.017999999999999999
sg2
(g3
(S'S10'
I0
I1
tRp16
(I3
S'|'
NNNI10
I1
I0
tbS'Tyler Ulis'
tRp17
F0.029000000000000001
sg2
(g3
(S'S14'
I0
I1
tRp18
(I3
S'|'
NNNI14
I1
I0
tbS'Draymond Green'
tRp19
F0.16
sg2
(g3
(S'S10'
I0
I1
tRp20
(I3
S'|'
NNNI10
I1
I0
tbS'Kyle Lowry'
tRp21
F0.216
sg2
(g3
(S'S14'
I0
I1
tRp22
(I3
S'|'
NNNI14
I1
I0
tbS'Raymond Felton'
tRp23
F0.055
sg2
(g3
(S'S14'
I0
I1
tRp24
(I3
S'|'
NNNI14
I1
I0
tbS'Thaddeus Young'
tRp25
F0.10000000000000001
sg2
(g3
(S'S10'
I0
I1
tRp26
(I3
S'|'
NNNI10
I1
I0
tbS'Kevin Love'
tRp27
F0.16300000000000001
sg2
(g3
(S'S14'
I0
I1
tRp28
(I3
S'|'
NNNI14
I1
I0
tbS'Nikola Vucevic'
tRp29
F0.087999999999999995
sg2
(g3
(S'S13'
I0
I1
tRp30
(I3
S'|'
NNNI13
I1
I0
tbS'Blake Griffin'
tRp31
F0.17899999999999999
sg2
(g3
(S'S12'
I0
I1
tRp32
(I3
S'|'
NNNI12
I1
I0
tbS'Aaron Brooks'
tRp33
F0.016
sg2
(g3
(S'S11'
I0
I1
tRp34
(I3
S'|'
NNNI11
I1
I0
tbS'George Hill'
tRp35
F0.182
sg2
(g3
(S'S11'
I0
I1
tRp36
(I3
S'|'
NNNI11
I1
I0
tbS'Joakim Noah'
tRp37
F0.106
sg2
(g3
(S'S15'
I0
I1
tRp38
(I3
S'|'
NNNI15
I1
I0
tbS'Andrew Harrison'
tRp39
F0.050999999999999997
sg2
(g3
(S'S13'
I0
I1
tRp40
(I3
S'|'
NNNI13
I1
I0
tbS'Isaiah Thomas'
tRp41
F0.23400000000000001
sg2
(g3
(S'S15'
I0
I1
tRp42
(I3
S'|'
NNNI15
I1
I0
tbS"DeAndre' Bembry"
tRp43
F0.037999999999999999
sg2
(g3
(S'S14'
I0
I1
tRp44
(I3
S'|'
NNNI14
I1
I0
tbS'John Lucas III'
tRp45
F-0.033000000000000002
sg2
(g3
(S'S15'
I0
I1
tRp46
(I3
S'|'
NNNI15
I1
I0
tbS'Jared Sullinger'
tRp47
F-0.031
sg2
(g3
(S'S12'
I0
I1
tRp48
(I3
S'|'
NNNI12
I1
I0
tbS'Paul Millsap'
tRp49
F0.13200000000000001
sg2
(g3
(S'S13'
I0
I1
tRp50
(I3
S'|'
NNNI13
I1
I0
tbS'Avery Bradley'
tRp51
F0.081000000000000003
sg2
(g3
(S'S11'
I0
I1
tRp52
(I3
S'|'
NNNI11
I1
I0
tbS'Okaro White'
tRp53
F0.066000000000000003
sg2
(g3
(S'S11'
I0
I1
tRp54
(I3
S'|'
NNNI11
I1
I0
tbS'Joe Johnson'
tRp55
F0.099000000000000005
sg2
(g3
(S'S11'
I0
I1
tRp56
(I3
S'|'
NNNI11
I1
I0
tbS'Will Barton'
tRp57
F0.092999999999999999
sg2
(g3
(S'S12'
I0
I1
tRp58
(I3
S'|'
NNNI12
I1
I0
tbS'Nik Stauskas'
tRp59
F0.031
sg2
(g3
(S'S12'
I0
I1
tRp60
(I3
S'|'
NNNI12
I1
I0
tbS'Jerami Grant'
tRp61
F0.098000000000000004
sg2
(g3
(S'S11'
I0
I1
tRp62
(I3
S'|'
NNNI11
I1
I0
tbS'James Jones'
tRp63
F0.10199999999999999
sg2
(g3
(S'S16'
I0
I1
tRp64
(I3
S'|'
NNNI16
I1
I0
tbS'DeMarcus Cousins'
tRp65
F0.13600000000000001
sg2
(g3
(S'S23'
I0
I1
tRp66
(I3
S'|'
NNNI23
I1
I0
tbS'Michael Carter-Williams'
tRp67
F0.012999999999999999
sg2
(g3
(S'S14'
I0
I1
tRp68
(I3
S'|'
NNNI14
I1
I0
tbS'Andrew Wiggins'
tRp69
F0.066000000000000003
sg2
(g3
(S'S13'
I0
I1
tRp70
(I3
S'|'
NNNI13
I1
I0
tbS'Julius Randle'
tRp71
F0.080000000000000002
sg2
(g3
(S'S10'
I0
I1
tRp72
(I3
S'|'
NNNI10
I1
I0
tbS'Marc Gasol'
tRp73
F0.14499999999999999
sg2
(g3
(S'S11'
I0
I1
tRp74
(I3
S'|'
NNNI11
I1
I0
tbS'Tony Parker'
tRp75
F0.091999999999999998
sg2
(g3
(S'S14'
I0
I1
tRp76
(I3
S'|'
NNNI14
I1
I0
tbS'Richaun Holmes'
tRp77
F0.151
sg2
(g3
(S'S12'
I0
I1
tRp78
(I3
S'|'
NNNI12
I1
I0
tbS'LeBron James'
tRp79
F0.221
sg2
(g3
(S'S11'
I0
I1
tRp80
(I3
S'|'
NNNI11
I1
I0
tbS'Brook Lopez'
tRp81
F0.105
sg2
(g3
(S'S13'
I0
I1
tRp82
(I3
S'|'
NNNI13
I1
I0
tbS'Dwight Powell'
tRp83
F0.16500000000000001
sg2
(g3
(S'S14'
I0
I1
tRp84
(I3
S'|'
NNNI14
I1
I0
tbS'Damian Lillard'
tRp85
F0.185
sg2
(g3
(S'S13'
I0
I1
tRp86
(I3
S'|'
NNNI13
I1
I0
tbS'Zach Randolph'
tRp87
F0.085999999999999993
sg2
(g3
(S'S15'
I0
I1
tRp88
(I3
S'|'
NNNI15
I1
I0
tbS'DeAndre Liggins'
tRp89
F0.19400000000000001
sg2
(g3
(S'S11'
I0
I1
tRp90
(I3
S'|'
NNNI11
I1
I0
tbS'Enes Kanter'
tRp91
F0.183
sg2
(g3
(S'S9'
I0
I1
tRp92
(I3
S'|'
NNNI9
I1
I0
tbS'Ty Lawson'
tRp93
F0.087999999999999995
sg2
(g3
(S'S15'
I0
I1
tRp94
(I3
S'|'
NNNI15
I1
I0
tbS'Wesley Matthews'
tRp95
F0.059999999999999998
sg2
(g3
(S'S17'
I0
I1
tRp96
(I3
S'|'
NNNI17
I1
I0
tbS'Willy Hernangomez'
tRp97
F0.123
sg2
(g3
(S'S20'
I0
I1
tRp98
(I3
S'|'
NNNI20
I1
I0
tbS'Nicolas Laprovittola'
tRp99
F0.043999999999999997
sg2
(g3
(S'S12'
I0
I1
tRp100
(I3
S'|'
NNNI12
I1
I0
tbS'Yogi Ferrell'
tRp101
F0.089999999999999997
sg2
(g3
(S'S14'
I0
I1
tRp102
(I3
S'|'
NNNI14
I1
I0
tbS'Elijah Millsap'
tRp103
F-0.23300000000000001
sg2
(g3
(S'S12'
I0
I1
tRp104
(I3
S'|'
NNNI12
I1
I0
tbS'Terry Rozier'
tRp105
F0.053999999999999999
sg2
(g3
(S'S12'
I0
I1
tRp106
(I3
S'|'
NNNI12
I1
I0
tbS'Alex Abrines'
tRp107
F0.096000000000000002
sg2
(g3
(S'S13'
I0
I1
tRp108
(I3
S'|'
NNNI13
I1
I0
tbS'Sasha Vujacic'
tRp109
F0.014
sg2
(g3
(S'S15'
I0
I1
tRp110
(I3
S'|'
NNNI15
I1
I0
tbS'Justise Winslow'
tRp111
F-0.0089999999999999993
sg2
(g3
(S'S12'
I0
I1
tRp112
(I3
S'|'
NNNI12
I1
I0
tbS'Jerian Grant'
tRp113
F0.11899999999999999
sg2
(g3
(S'S13'
I0
I1
tRp114
(I3
S'|'
NNNI13
I1
I0
tbS'Patrick McCaw'
tRp115
F0.076999999999999999
sg2
(g3
(S'S11'
I0
I1
tRp116
(I3
S'|'
NNNI11
I1
I0
tbS'Salah Mejri'
tRp117
F0.159
sg2
(g3
(S'S12'
I0
I1
tRp118
(I3
S'|'
NNNI12
I1
I0
tbS'Jordan McRae'
tRp119
F0.02
sg2
(g3
(S'S15'
I0
I1
tRp120
(I3
S'|'
NNNI15
I1
I0
tbS'Khris Middleton'
tRp121
F0.085000000000000006
sS'Otto Porter Jr.'
p122
F0.17299999999999999
sS'TJ Warren'
p123
F0.096000000000000002
sg2
(g3
(S'S15'
I0
I1
tRp124
(I3
S'|'
NNNI15
I1
I0
tbS'Al-Farouq Aminu'
tRp125
F0.050999999999999997
sg2
(g3
(S'S10'
I0
I1
tRp126
(I3
S'|'
NNNI10
I1
I0
tbS'Al Horford'
tRp127
F0.13800000000000001
sg2
(g3
(S'S15'
I0
I1
tRp128
(I3
S'|'
NNNI15
I1
I0
tbS'Lamar Patterson'
tRp129
F-0.17599999999999999
sg2
(g3
(S'S12'
I0
I1
tRp130
(I3
S'|'
NNNI12
I1
I0
tbS"Kyle O'Quinn"
tRp131
F0.151
sg2
(g3
(S'S13'
I0
I1
tRp132
(I3
S'|'
NNNI13
I1
I0
tbS'James Johnson'
tRp133
F0.11700000000000001
sg2
(g3
(S'S12'
I0
I1
tRp134
(I3
S'|'
NNNI12
I1
I0
tbS'Amir Johnson'
tRp135
F0.14899999999999999
sg2
(g3
(S'S16'
I0
I1
tRp136
(I3
S'|'
NNNI16
I1
I0
tbS'Jonathon Simmons'
tRp137
F0.068000000000000005
sg2
(g3
(S'S12'
I0
I1
tRp138
(I3
S'|'
NNNI12
I1
I0
tbS'Tyler Zeller'
tRp139
F0.094
sg2
(g3
(S'S14'
I0
I1
tRp140
(I3
S'|'
NNNI14
I1
I0
tbS'Chasson Randle'
tRp141
F0.074999999999999997
sg2
(g3
(S'S14'
I0
I1
tRp142
(I3
S'|'
NNNI14
I1
I0
tbS'Ersan Ilyasova'
tRp143
F0.106
sg2
(g3
(S'S18'
I0
I1
tRp144
(I3
S'|'
NNNI18
I1
I0
tbS'Donatas Motiejunas'
tRp145
F0.016
sS'JR Smith'
p146
F0.034000000000000002
sg2
(g3
(S'S11'
I0
I1
tRp147
(I3
S'|'
NNNI11
I1
I0
tbS'Aron Baynes'
tRp148
F0.123
sg2
(g3
(S'S12'
I0
I1
tRp149
(I3
S'|'
NNNI12
I1
I0
tbS'Brandon Rush'
tRp150
F0.019
sg2
(g3
(S'S13'
I0
I1
tRp151
(I3
S'|'
NNNI13
I1
I0
tbS'Manu Ginobili'
tRp152
F0.11
sg2
(g3
(S'S14'
I0
I1
tRp153
(I3
S'|'
NNNI14
I1
I0
tbS'Reggie Jackson'
tRp154
F0.065000000000000002
sg2
(g3
(S'S12'
I0
I1
tRp155
(I3
S'|'
NNNI12
I1
I0
tbS'Delon Wright'
tRp156
F0.11700000000000001
sg2
(g3
(S'S12'
I0
I1
tRp157
(I3
S'|'
NNNI12
I1
I0
tbS'Jimmy Butler'
tRp158
F0.23599999999999999
sg2
(g3
(S'S12'
I0
I1
tRp159
(I3
S'|'
NNNI12
I1
I0
tbS'Courtney Lee'
tRp160
F0.081000000000000003
sg2
(g3
(S'S9'
I0
I1
tRp161
(I3
S'|'
NNNI9
I1
I0
tbS'Luol Deng'
tRp162
F0.029000000000000001
sg2
(g3
(S'S11'
I0
I1
tRp163
(I3
S'|'
NNNI11
I1
I0
tbS'Jordan Hill'
tRp164
F-0.033000000000000002
sg2
(g3
(S'S13'
I0
I1
tRp165
(I3
S'|'
NNNI13
I1
I0
tbS'Troy Williams'
tRp166
F0.11600000000000001
sg2
(g3
(S'S10'
I0
I1
tRp167
(I3
S'|'
NNNI10
I1
I0
tbS'Sam Dekker'
tRp168
F0.104
sg2
(g3
(S'S12'
I0
I1
tRp169
(I3
S'|'
NNNI12
I1
I0
tbS'Eric Bledsoe'
tRp170
F0.11799999999999999
sg2
(g3
(S'S13'
I0
I1
tRp171
(I3
S'|'
NNNI13
I1
I0
tbS'Zaza Pachulia'
tRp172
F0.17799999999999999
sg2
(g3
(S'S23'
I0
I1
tRp173
(I3
S'|'
NNNI23
I1
I0
tbS'Timothe Luwawu-Cabarrot'
tRp174
F0.034000000000000002
sg2
(g3
(S'S14'
I0
I1
tRp175
(I3
S'|'
NNNI14
I1
I0
tbS'Lucas Nogueira'
tRp176
F0.16400000000000001
sg2
(g3
(S'S15'
I0
I1
tRp177
(I3
S'|'
NNNI15
I1
I0
tbS'Dejounte Murray'
tRp178
F0.0040000000000000001
sg2
(g3
(S'S16'
I0
I1
tRp179
(I3
S'|'
NNNI16
I1
I0
tbS'Juan Hernangomez'
tRp180
F0.104
sg2
(g3
(S'S14'
I0
I1
tRp181
(I3
S'|'
NNNI14
I1
I0
tbS'Jamal Crawford'
tRp182
F0.042999999999999997
sg2
(g3
(S'S10'
I0
I1
tRp183
(I3
S'|'
NNNI10
I1
I0
tbS'Joe Ingles'
tRp184
F0.123
sg2
(g3
(S'S15'
I0
I1
tRp185
(I3
S'|'
NNNI15
I1
I0
tbS'Anthony Bennett'
tRp186
F0.089999999999999997
sg2
(g3
(S'S13'
I0
I1
tRp187
(I3
S'|'
NNNI13
I1
I0
tbS'Tyler Johnson'
tRp188
F0.128
sg2
(g3
(S'S11'
I0
I1
tRp189
(I3
S'|'
NNNI11
I1
I0
tbS'Noah Vonleh'
tRp190
F0.069000000000000006
sg2
(g3
(S'S11'
I0
I1
tRp191
(I3
S'|'
NNNI11
I1
I0
tbS'Gary Payton'
tRp192
F-0.073999999999999996
sg2
(g3
(S'S14'
I0
I1
tRp193
(I3
S'|'
NNNI14
I1
I0
tbS'Chinanu Onuaku'
tRp194
F0.123
sg2
(g3
(S'S9'
I0
I1
tRp195
(I3
S'|'
NNNI9
I1
I0
tbS'Jon Leuer'
tRp196
F0.112
sg2
(g3
(S'S24'
I0
I1
tRp197
(I3
S'|'
NNNI24
I1
I0
tbS'Kentavious Caldwell-Pope'
tRp198
F0.085999999999999993
sg2
(g3
(S'S16'
I0
I1
tRp199
(I3
S'|'
NNNI16
I1
I0
tbS'Maurice Harkless'
tRp200
F0.090999999999999998
sg2
(g3
(S'S14'
I0
I1
tRp201
(I3
S'|'
NNNI14
I1
I0
tbS'DeAndre Jordan'
tRp202
F0.221
sg2
(g3
(S'S15'
I0
I1
tRp203
(I3
S'|'
NNNI15
I1
I0
tbS'Jordan Clarkson'
tRp204
F0.024
sg2
(g3
(S'S12'
I0
I1
tRp205
(I3
S'|'
NNNI12
I1
I0
tbS'Goran Dragic'
tRp206
F0.14699999999999999
sg2
(g3
(S'S11'
I0
I1
tRp207
(I3
S'|'
NNNI11
I1
I0
tbS'Jeff Withey'
tRp208
F0.20499999999999999
sg2
(g3
(S'S16'
I0
I1
tRp209
(I3
S'|'
NNNI16
I1
I0
tbS'Danilo Gallinari'
tRp210
F0.154
sg2
(g3
(S'S13'
I0
I1
tRp211
(I3
S'|'
NNNI13
I1
I0
tbS'Stephen Curry'
tRp212
F0.22900000000000001
sg2
(g3
(S'S11'
I0
I1
tRp213
(I3
S'|'
NNNI11
I1
I0
tbS'Tarik Black'
tRp214
F0.105
sg2
(g3
(S'S21'
I0
I1
tRp215
(I3
S'|'
NNNI21
I1
I0
tbS'Giannis Antetokounmpo'
tRp216
F0.20999999999999999
sg2
(g3
(S'S12'
I0
I1
tRp217
(I3
S'|'
NNNI12
I1
I0
tbS'Caris LeVert'
tRp218
F0.070000000000000007
sg2
(g3
(S'S15'
I0
I1
tRp219
(I3
S'|'
NNNI15
I1
I0
tbS'Josh Richardson'
tRp220
F0.066000000000000003
sS'Tim Hardaway Jr.'
p221
F0.107
sg2
(g3
(S'S13'
I0
I1
tRp222
(I3
S'|'
NNNI13
I1
I0
tbS'Fred VanVleet'
tRp223
F0.040000000000000001
sg2
(g3
(S'S14'
I0
I1
tRp224
(I3
S'|'
NNNI14
I1
I0
tbS'Wesley Johnson'
tRp225
F0.050999999999999997
sg2
(g3
(S'S12'
I0
I1
tRp226
(I3
S'|'
NNNI12
I1
I0
tbS'Kelly Olynyk'
tRp227
F0.127
sg2
(g3
(S'S12'
I0
I1
tRp228
(I3
S'|'
NNNI12
I1
I0
tbS'Steven Adams'
tRp229
F0.13
sg2
(g3
(S'S14'
I0
I1
tRp230
(I3
S'|'
NNNI14
I1
I0
tbS'T.J. McConnell'
tRp231
F0.084000000000000005
sg2
(g3
(S'S12'
I0
I1
tRp232
(I3
S'|'
NNNI12
I1
I0
tbS'Manny Harris'
tRp233
F-0.36399999999999999
sg2
(g3
(S'S10'
I0
I1
tRp234
(I3
S'|'
NNNI10
I1
I0
tbS'David West'
tRp235
F0.14799999999999999
sg2
(g3
(S'S16'
I0
I1
tRp236
(I3
S'|'
NNNI16
I1
I0
tbS'Marshall Plumlee'
tRp237
F0.048000000000000001
sg2
(g3
(S'S14'
I0
I1
tRp238
(I3
S'|'
NNNI14
I1
I0
tbS'Alex Poythress'
tRp239
F0.099000000000000005
sg2
(g3
(S'S17'
I0
I1
tRp240
(I3
S'|'
NNNI17
I1
I0
tbS'Metta World Peace'
tRp241
F-0.060999999999999999
sg2
(g3
(S'S9'
I0
I1
tRp242
(I3
S'|'
NNNI9
I1
I0
tbS'Kris Dunn'
tRp243
F0.0040000000000000001
sg2
(g3
(S'S11'
I0
I1
tRp244
(I3
S'|'
NNNI11
I1
I0
tbS'Willie Reed'
tRp245
F0.16800000000000001
sg2
(g3
(S'S11'
I0
I1
tRp246
(I3
S'|'
NNNI11
I1
I0
tbS'Rajon Rondo'
tRp247
F0.059999999999999998
sg2
(g3
(S'S10'
I0
I1
tRp248
(I3
S'|'
NNNI10
I1
I0
tbS'Tyus Jones'
tRp249
F0.096000000000000002
sg2
(g3
(S'S11'
I0
I1
tRp250
(I3
S'|'
NNNI11
I1
I0
tbS'James Young'
tRp251
F0.075999999999999998
sg2
(g3
(S'S18'
I0
I1
tRp252
(I3
S'|'
NNNI18
I1
I0
tbS'Malachi Richardson'
tRp253
F0.028000000000000001
sg2
(g3
(S'S12'
I0
I1
tRp254
(I3
S'|'
NNNI12
I1
I0
tbS'Axel Toupane'
tRp255
F0.098000000000000004
sg2
(g3
(S'S9'
I0
I1
tRp256
(I3
S'|'
NNNI9
I1
I0
tbS'Gary Neal'
tRp257
F-0.189
sg2
(g3
(S'S14'
I0
I1
tRp258
(I3
S'|'
NNNI14
I1
I0
tbS'Timofey Mozgov'
tRp259
F0.048000000000000001
sg2
(g3
(S'S11'
I0
I1
tRp260
(I3
S'|'
NNNI11
I1
I0
tbS'Ivica Zubac'
tRp261
F0.085999999999999993
sg2
(g3
(S'S14'
I0
I1
tRp262
(I3
S'|'
NNNI14
I1
I0
tbS'Rodney Stuckey'
tRp263
F-0.0060000000000000001
sg2
(g3
(S'S12'
I0
I1
tRp264
(I3
S'|'
NNNI12
I1
I0
tbS'Troy Daniels'
tRp265
F0.050999999999999997
sg2
(g3
(S'S10'
I0
I1
tRp266
(I3
S'|'
NNNI10
I1
I0
tbS'Beno Udrih'
tRp267
F0.113
sg2
(g3
(S'S11'
I0
I1
tRp268
(I3
S'|'
NNNI11
I1
I0
tbS'Omri Casspi'
tRp269
F0.032000000000000001
sS'Nene'
p270
F0.16500000000000001
sg2
(g3
(S'S10'
I0
I1
tRp271
(I3
S'|'
NNNI10
I1
I0
tbS'Chris Paul'
tRp272
F0.26400000000000001
sg2
(g3
(S'S12'
I0
I1
tRp273
(I3
S'|'
NNNI12
I1
I0
tbS'Marcus Smart'
tRp274
F0.064000000000000001
sg2
(g3
(S'S15'
I0
I1
tRp275
(I3
S'|'
NNNI15
I1
I0
tbS'Malcolm Delaney'
tRp276
F0.0050000000000000001
sg2
(g3
(S'S12'
I0
I1
tRp277
(I3
S'|'
NNNI12
I1
I0
tbS'Kemba Walker'
tRp278
F0.14199999999999999
sg2
(g3
(S'S12'
I0
I1
tRp279
(I3
S'|'
NNNI12
I1
I0
tbS'John Jenkins'
tRp280
F0.16700000000000001
sg2
(g3
(S'S13'
I0
I1
tRp281
(I3
S'|'
NNNI13
I1
I0
tbS'Trevor Booker'
tRp282
F0.085999999999999993
sg2
(g3
(S'S10'
I0
I1
tRp283
(I3
S'|'
NNNI10
I1
I0
tbS'J.J. Barea'
tRp284
F0.080000000000000002
sg2
(g3
(S'S12'
I0
I1
tRp285
(I3
S'|'
NNNI12
I1
I0
tbS'Tyreke Evans'
tRp286
F0.034000000000000002
sg2
(g3
(S'S14'
I0
I1
tRp287
(I3
S'|'
NNNI14
I1
I0
tbS'Reggie Bullock'
tRp288
F0.10100000000000001
sg2
(g3
(S'S14'
I0
I1
tRp289
(I3
S'|'
NNNI14
I1
I0
tbS'Meyers Leonard'
tRp290
F0.052999999999999999
sg2
(g3
(S'S11'
I0
I1
tRp291
(I3
S'|'
NNNI11
I1
I0
tbS'Mike Conley'
tRp292
F0.20899999999999999
sg2
(g3
(S'S15'
I0
I1
tRp293
(I3
S'|'
NNNI15
I1
I0
tbS'Marcus Thornton'
tRp294
F0.042000000000000003
sg2
(g3
(S'S13'
I0
I1
tRp295
(I3
S'|'
NNNI13
I1
I0
tbS'Alan Anderson'
tRp296
F0.02
sg2
(g3
(S'S22'
I0
I1
tRp297
(I3
S'|'
NNNI22
I1
I0
tbS'Michael Kidd-Gilchrist'
tRp298
F0.11899999999999999
sg2
(g3
(S'S11'
I0
I1
tRp299
(I3
S'|'
NNNI11
I1
I0
tbS'Jeff Teague'
tRp300
F0.14599999999999999
sg2
(g3
(S'S15'
I0
I1
tRp301
(I3
S'|'
NNNI15
I1
I0
tbS'Pat Connaughton'
tRp302
F0.089999999999999997
sg2
(g3
(S'S15'
I0
I1
tRp303
(I3
S'|'
NNNI15
I1
I0
tbS'Sean Kilpatrick'
tRp304
F0.040000000000000001
sg2
(g3
(S'S11'
I0
I1
tRp305
(I3
S'|'
NNNI11
I1
I0
tbS'Evan Turner'
tRp306
F0.035000000000000003
sg2
(g3
(S'S12'
I0
I1
tRp307
(I3
S'|'
NNNI12
I1
I0
tbS'Trevor Ariza'
tRp308
F0.104
sg2
(g3
(S'S13'
I0
I1
tRp309
(I3
S'|'
NNNI13
I1
I0
tbS'Cameron Payne'
tRp310
F-0.085999999999999993
sg2
(g3
(S'S11'
I0
I1
tRp311
(I3
S'|'
NNNI11
I1
I0
tbS'Cory Joseph'
tRp312
F0.082000000000000003
sg2
(g3
(S'S11'
I0
I1
tRp313
(I3
S'|'
NNNI11
I1
I0
tbS'Monta Ellis'
tRp314
F0.025999999999999999
sg2
(g3
(S'S11'
I0
I1
tRp315
(I3
S'|'
NNNI11
I1
I0
tbS'Lavoy Allen'
tRp316
F0.092999999999999999
sg2
(g3
(S'S11'
I0
I1
tRp317
(I3
S'|'
NNNI11
I1
I0
tbS'Zach LaVine'
tRp318
F0.082000000000000003
sg2
(g3
(S'S10'
I0
I1
tRp319
(I3
S'|'
NNNI10
I1
I0
tbS'Mike Scott'
tRp320
F-0.014
sg2
(g3
(S'S12'
I0
I1
tRp321
(I3
S'|'
NNNI12
I1
I0
tbS'Shelvin Mack'
tRp322
F0.053999999999999999
sg2
(g3
(S'S10'
I0
I1
tRp323
(I3
S'|'
NNNI10
I1
I0
tbS'Jeff Green'
tRp324
F0.021999999999999999
sg2
(g3
(S'S12'
I0
I1
tRp325
(I3
S'|'
NNNI12
I1
I0
tbS'Gorgui Dieng'
tRp326
F0.10299999999999999
sg2
(g3
(S'S11'
I0
I1
tRp327
(I3
S'|'
NNNI11
I1
I0
tbS'Roy Hibbert'
tRp328
F0.11899999999999999
sg2
(g3
(S'S10'
I0
I1
tRp329
(I3
S'|'
NNNI10
I1
I0
tbS'Alec Burks'
tRp330
F0.056000000000000001
sg2
(g3
(S'S10'
I0
I1
tRp331
(I3
S'|'
NNNI10
I1
I0
tbS'Tony Allen'
tRp332
F0.076999999999999999
sg2
(g3
(S'S8'
I0
I1
tRp333
(I3
S'|'
NNNI8
I1
I0
tbS'Ed Davis'
tRp334
F0.104
sg2
(g3
(S'S12'
I0
I1
tRp335
(I3
S'|'
NNNI12
I1
I0
tbS'Kevin Durant'
tRp336
F0.27800000000000002
sg2
(g3
(S'S11'
I0
I1
tRp337
(I3
S'|'
NNNI11
I1
I0
tbS'David Nwaba'
tRp338
F0.090999999999999998
sg2
(g3
(S'S12'
I0
I1
tRp339
(I3
S'|'
NNNI12
I1
I0
tbS'JaVale McGee'
tRp340
F0.22500000000000001
sg2
(g3
(S'S15'
I0
I1
tRp341
(I3
S'|'
NNNI15
I1
I0
tbS'Justin Anderson'
tRp342
F0.084000000000000005
sg2
(g3
(S'S13'
I0
I1
tRp343
(I3
S'|'
NNNI13
I1
I0
tbS'Austin Rivers'
tRp344
F0.058999999999999997
sg2
(g3
(S'S12'
I0
I1
tRp345
(I3
S'|'
NNNI12
I1
I0
tbS'Corey Brewer'
tRp346
F0.047
sg2
(g3
(S'S13'
I0
I1
tRp347
(I3
S'|'
NNNI13
I1
I0
tbS'Alan Williams'
tRp348
F0.14199999999999999
sg2
(g3
(S'S14'
I0
I1
tRp349
(I3
S'|'
NNNI14
I1
I0
tbS'Kevin Seraphin'
tRp350
F0.082000000000000003
sg2
(g3
(S'S15'
I0
I1
tRp351
(I3
S'|'
NNNI15
I1
I0
tbS'Mirza Teletovic'
tRp352
F0.025000000000000001
sg2
(g3
(S'S12'
I0
I1
tRp353
(I3
S'|'
NNNI12
I1
I0
tbS'Kyrie Irving'
tRp354
F0.17000000000000001
sg2
(g3
(S'S10'
I0
I1
tRp355
(I3
S'|'
NNNI10
I1
I0
tbS'Mike Tobey'
tRp356
F-0.070000000000000007
sg2
(g3
(S'S14'
I0
I1
tRp357
(I3
S'|'
NNNI14
I1
I0
tbS'Darrell Arthur'
tRp358
F0.081000000000000003
sg2
(g3
(S'S15'
I0
I1
tRp359
(I3
S'|'
NNNI15
I1
I0
tbS'Darrun Hilliard'
tRp360
F-0.027
sg2
(g3
(S'S10'
I0
I1
tRp361
(I3
S'|'
NNNI10
I1
I0
tbS'Joe Harris'
tRp362
F0.032000000000000001
sg2
(g3
(S'S11'
I0
I1
tRp363
(I3
S'|'
NNNI11
I1
I0
tbS'Jason Terry'
tRp364
F0.074999999999999997
sg2
(g3
(S'S15'
I0
I1
tRp365
(I3
S'|'
NNNI15
I1
I0
tbS'Thomas Robinson'
tRp366
F0.079000000000000001
sg2
(g3
(S'S11'
I0
I1
tRp367
(I3
S'|'
NNNI11
I1
I0
tbS'Rudy Gobert'
tRp368
F0.25
sg2
(g3
(S'S9'
I0
I1
tRp369
(I3
S'|'
NNNI9
I1
I0
tbS'David Lee'
tRp370
F0.186
sg2
(g3
(S'S13'
I0
I1
tRp371
(I3
S'|'
NNNI13
I1
I0
tbS'Jordan Farmar'
tRp372
F0.063
sg2
(g3
(S'S13'
I0
I1
tRp373
(I3
S'|'
NNNI13
I1
I0
tbS'Cheick Diallo'
tRp374
F0.111
sg2
(g3
(S'S14'
I0
I1
tRp375
(I3
S'|'
NNNI14
I1
I0
tbS'Kenneth Faried'
tRp376
F0.16800000000000001
sg2
(g3
(S'S16'
I0
I1
tRp377
(I3
S'|'
NNNI16
I1
I0
tbS'Shaun Livingston'
tRp378
F0.092999999999999999
sg2
(g3
(S'S15'
I0
I1
tRp379
(I3
S'|'
NNNI15
I1
I0
tbS'Larry Nance Jr.'
tRp380
F0.11799999999999999
sg2
(g3
(S'S12'
I0
I1
tRp381
(I3
S'|'
NNNI12
I1
I0
tbS'Vince Carter'
tRp382
F0.106
sS'Sheldon McClellan'
p383
F0.075999999999999998
sg2
(g3
(S'S12'
I0
I1
tRp384
(I3
S'|'
NNNI12
I1
I0
tbS'Bradley Beal'
tRp385
F0.152
sg2
(g3
(S'S13'
I0
I1
tRp386
(I3
S'|'
NNNI13
I1
I0
tbS'Pascal Siakam'
tRp387
F0.088999999999999996
sg2
(g3
(S'S13'
I0
I1
tRp388
(I3
S'|'
NNNI13
I1
I0
tbS'Jose Calderon'
tRp389
F0.050999999999999997
sg2
(g3
(S'S13'
I0
I1
tRp390
(I3
S'|'
NNNI13
I1
I0
tbS'Miles Plumlee'
tRp391
F0.086999999999999994
sg2
(g3
(S'S12'
I0
I1
tRp392
(I3
S'|'
NNNI12
I1
I0
tbS'Jamal Murray'
tRp393
F0.036999999999999998
sS'CJ McCollum'
p394
F0.13100000000000001
sg2
(g3
(S'S11'
I0
I1
tRp395
(I3
S'|'
NNNI11
I1
I0
tbS'Tyler Ennis'
tRp396
F0.076999999999999999
sg2
(g3
(S'S10'
I0
I1
tRp397
(I3
S'|'
NNNI10
I1
I0
tbS'Nick Young'
tRp398
F0.098000000000000004
sg2
(g3
(S'S13'
I0
I1
tRp399
(I3
S'|'
NNNI13
I1
I0
tbS'Adreian Payne'
tRp400
F0.085999999999999993
sS'PJ Tucker'
p401
F0.099000000000000005
sg2
(g3
(S'S16'
I0
I1
tRp402
(I3
S'|'
NNNI16
I1
I0
tbS'Chris McCullough'
tRp403
F-0.16200000000000001
sg2
(g3
(S'S12'
I0
I1
tRp404
(I3
S'|'
NNNI12
I1
I0
tbS'Kosta Koufos'
tRp405
F0.088999999999999996
sg2
(g3
(S'S13'
I0
I1
tRp406
(I3
S'|'
NNNI13
I1
I0
tbS'Toney Douglas'
tRp407
F0.058999999999999997
sg2
(g3
(S'S16'
I0
I1
tRp408
(I3
S'|'
NNNI16
I1
I0
tbS'Denzel Valentine'
tRp409
F0.031
sg2
(g3
(S'S12'
I0
I1
tRp410
(I3
S'|'
NNNI12
I1
I0
tbS'Cole Aldrich'
tRp411
F0.11600000000000001
sg2
(g3
(S'S13'
I0
I1
tRp412
(I3
S'|'
NNNI13
I1
I0
tbS'Briante Weber'
tRp413
F0.081000000000000003
sg2
(g3
(S'S13'
I0
I1
tRp414
(I3
S'|'
NNNI13
I1
I0
tbS'Daniel Ochefu'
tRp415
F0.0050000000000000001
sg2
(g3
(S'S16'
I0
I1
tRp416
(I3
S'|'
NNNI16
I1
I0
tbS'Anderson Varejao'
tRp417
F0.097000000000000003
sg2
(g3
(S'S11'
I0
I1
tRp418
(I3
S'|'
NNNI11
I1
I0
tbS'Norris Cole'
tRp419
F-0.033000000000000002
sg2
(g3
(S'S11'
I0
I1
tRp420
(I3
S'|'
NNNI11
I1
I0
tbS'Paul Zipser'
tRp421
F0.029999999999999999
sg2
(g3
(S'S13'
I0
I1
tRp422
(I3
S'|'
NNNI13
I1
I0
tbS'Joel Bolomboy'
tRp423
F0.17100000000000001
sg2
(g3
(S'S13'
I0
I1
tRp424
(I3
S'|'
NNNI13
I1
I0
tbS'Norman Powell'
tRp425
F0.097000000000000003
sg2
(g3
(S'S15'
I0
I1
tRp426
(I3
S'|'
NNNI15
I1
I0
tbS'Marvin Williams'
tRp427
F0.105
sg2
(g3
(S'S12'
I0
I1
tRp428
(I3
S'|'
NNNI12
I1
I0
tbS'Devin Booker'
tRp429
F0.035000000000000003
sg2
(g3
(S'S9'
I0
I1
tRp430
(I3
S'|'
NNNI9
I1
I0
tbS'Raul Neto'
tRp431
F0.10000000000000001
sg2
(g3
(S'S13'
I0
I1
tRp432
(I3
S'|'
NNNI13
I1
I0
tbS'Jameer Nelson'
tRp433
F0.066000000000000003
sg2
(g3
(S'S15'
I0
I1
tRp434
(I3
S'|'
NNNI15
I1
I0
tbS'Bismack Biyombo'
tRp435
F0.076999999999999999
sg2
(g3
(S'S14'
I0
I1
tRp436
(I3
S'|'
NNNI14
I1
I0
tbS'Jarnell Stokes'
tRp437
F0.47999999999999998
sg2
(g3
(S'S14'
I0
I1
tRp438
(I3
S'|'
NNNI14
I1
I0
tbS'Deron Williams'
tRp439
F0.058999999999999997
sg2
(g3
(S'S19'
I0
I1
tRp440
(I3
S'|'
NNNI19
I1
I0
tbS'Willie Cauley-Stein'
tRp441
F0.10000000000000001
sg2
(g3
(S'S12'
I0
I1
tRp442
(I3
S'|'
NNNI12
I1
I0
tbS'Ben McLemore'
tRp443
F0.014999999999999999
sg2
(g3
(S'S13'
I0
I1
tRp444
(I3
S'|'
NNNI13
I1
I0
tbS'Isaiah Taylor'
tRp445
F-0.028000000000000001
sg2
(g3
(S'S16'
I0
I1
tRp446
(I3
S'|'
NNNI16
I1
I0
tbS'Patrick Beverley'
tRp447
F0.123
sg2
(g3
(S'S13'
I0
I1
tRp448
(I3
S'|'
NNNI13
I1
I0
tbS'Udonis Haslem'
tRp449
F0.073999999999999996
sg2
(g3
(S'S13'
I0
I1
tRp450
(I3
S'|'
NNNI13
I1
I0
tbS'Malik Beasley'
tRp451
F0.057000000000000002
sg2
(g3
(S'S13'
I0
I1
tRp452
(I3
S'|'
NNNI13
I1
I0
tbS'Diamond Stone'
tRp453
F-0.21099999999999999
sg2
(g3
(S'S18'
I0
I1
tRp454
(I3
S'|'
NNNI18
I1
I0
tbS'Karl-Anthony Towns'
tRp455
F0.20100000000000001
sg2
(g3
(S'S16'
I0
I1
tRp456
(I3
S'|'
NNNI16
I1
I0
tbS'Anthony Tolliver'
tRp457
F0.074999999999999997
sg2
(g3
(S'S13'
I0
I1
tRp458
(I3
S'|'
NNNI13
I1
I0
tbS'Georges Niang'
tRp459
F-0.16800000000000001
sg2
(g3
(S'S14'
I0
I1
tRp460
(I3
S'|'
NNNI14
I1
I0
tbS'Archie Goodwin'
tRp461
F0.13100000000000001
sg2
(g3
(S'S14'
I0
I1
tRp462
(I3
S'|'
NNNI14
I1
I0
tbS'K.J. McDaniels'
tRp463
F0.045999999999999999
sg2
(g3
(S'S17'
I0
I1
tRp464
(I3
S'|'
NNNI17
I1
I0
tbS'Stephen Zimmerman'
tRp465
F-0.0050000000000000001
sg2
(g3
(S'S10'
I0
I1
tRp466
(I3
S'|'
NNNI10
I1
I0
tbS'Taj Gibson'
tRp467
F0.075999999999999998
sg2
(g3
(S'S13'
I0
I1
tRp468
(I3
S'|'
NNNI13
I1
I0
tbS'Anthony Davis'
tRp469
F0.19500000000000001
sg2
(g3
(S'S12'
I0
I1
tRp470
(I3
S'|'
NNNI12
I1
I0
tbS'Josh Huestis'
tRp471
F0.26500000000000001
sg2
(g3
(S'S14'
I0
I1
tRp472
(I3
S'|'
NNNI14
I1
I0
tbS'Doug McDermott'
tRp473
F0.080000000000000002
sg2
(g3
(S'S11'
I0
I1
tRp474
(I3
S'|'
NNNI11
I1
I0
tbS'Paul Pierce'
tRp475
F0.014999999999999999
sg2
(g3
(S'S13'
I0
I1
tRp476
(I3
S'|'
NNNI13
I1
I0
tbS'Jarrod Uthoff'
tRp477
F0.083000000000000004
sS'Glenn Robinson III'
p478
F0.085000000000000006
sg2
(g3
(S'S9'
I0
I1
tRp479
(I3
S'|'
NNNI9
I1
I0
tbS'Ron Baker'
tRp480
F-0.0080000000000000002
sg2
(g3
(S'S15'
I0
I1
tRp481
(I3
S'|'
NNNI15
I1
I0
tbS'Patricio Garino'
tRp482
F-0.25
sg2
(g3
(S'S12'
I0
I1
tRp483
(I3
S'|'
NNNI12
I1
I0
tbS'A.J. Hammons'
tRp484
F-0.001
sS'James Ennis III'
p485
F0.10100000000000001
sg2
(g3
(S'S13'
I0
I1
tRp486
(I3
S'|'
NNNI13
I1
I0
tbS'Justin Harper'
tRp487
F-0.10299999999999999
sg2
(g3
(S'S9'
I0
I1
tRp488
(I3
S'|'
NNNI9
I1
I0
tbS'John Wall'
tRp489
F0.14899999999999999
sg2
(g3
(S'S12'
I0
I1
tRp490
(I3
S'|'
NNNI12
I1
I0
tbS'Solomon Hill'
tRp491
F0.055
sg2
(g3
(S'S11'
I0
I1
tRp492
(I3
S'|'
NNNI11
I1
I0
tbS'Robin Lopez'
tRp493
F0.089999999999999997
sg2
(g3
(S'S12'
I0
I1
tRp494
(I3
S'|'
NNNI12
I1
I0
tbS'Joel Anthony'
tRp495
F0.14099999999999999
sg2
(g3
(S'S11'
I0
I1
tRp496
(I3
S'|'
NNNI11
I1
I0
tbS'Tim Frazier'
tRp497
F0.074999999999999997
sg2
(g3
(S'S9'
I0
I1
tRp498
(I3
S'|'
NNNI9
I1
I0
tbS'Ish Smith'
tRp499
F0.075999999999999998
sg2
(g3
(S'S16'
I0
I1
tRp500
(I3
S'|'
NNNI16
I1
I0
tbS'Lance Stephenson'
tRp501
F0.012
sg2
(g3
(S'S13'
I0
I1
tRp502
(I3
S'|'
NNNI13
I1
I0
tbS"E'Twaun Moore"
tRp503
F0.070000000000000007
sg2
(g3
(S'S14'
I0
I1
tRp504
(I3
S'|'
NNNI14
I1
I0
tbS'Frank Kaminsky'
tRp505
F0.056000000000000001
sg2
(g3
(S'S16'
I0
I1
tRp506
(I3
S'|'
NNNI16
I1
I0
tbS'Sergio Rodriguez'
tRp507
F0.023
sg2
(g3
(S'S14'
I0
I1
tRp508
(I3
S'|'
NNNI14
I1
I0
tbS'Brandon Knight'
tRp509
F0.014999999999999999
sg2
(g3
(S'S15'
I0
I1
tRp510
(I3
S'|'
NNNI15
I1
I0
tbS'Carmelo Anthony'
tRp511
F0.088999999999999996
sg2
(g3
(S'S15'
I0
I1
tRp512
(I3
S'|'
NNNI15
I1
I0
tbS'Hollis Thompson'
tRp513
F0.0070000000000000001
sg2
(g3
(S'S11'
I0
I1
tRp514
(I3
S'|'
NNNI11
I1
I0
tbS'Jae Crowder'
tRp515
F0.13700000000000001
sg2
(g3
(S'S13'
I0
I1
tRp516
(I3
S'|'
NNNI13
I1
I0
tbS'Spencer Hawes'
tRp517
F0.16
sg2
(g3
(S'S13'
I0
I1
tRp518
(I3
S'|'
NNNI13
I1
I0
tbS'Elfrid Payton'
tRp519
F0.087999999999999995
sg2
(g3
(S'S12'
I0
I1
tRp520
(I3
S'|'
NNNI12
I1
I0
tbS'Kyle Wiltjer'
tRp521
F-0.039
sg2
(g3
(S'S11'
I0
I1
tRp522
(I3
S'|'
NNNI11
I1
I0
tbS'Jeremy Lamb'
tRp523
F0.115
sg2
(g3
(S'S14'
I0
I1
tRp524
(I3
S'|'
NNNI14
I1
I0
tbS'Tiago Splitter'
tRp525
F0.071999999999999995
sg2
(g3
(S'S15'
I0
I1
tRp526
(I3
S'|'
NNNI15
I1
I0
tbS'Thabo Sefolosha'
tRp527
F0.098000000000000004
sg2
(g3
(S'S11'
I0
I1
tRp528
(I3
S'|'
NNNI11
I1
I0
tbS'Kyle Korver'
tRp529
F0.114
sg2
(g3
(S'S12'
I0
I1
tRp530
(I3
S'|'
NNNI12
I1
I0
tbS'Brandon Bass'
tRp531
F0.186
sg2
(g3
(S'S13'
I0
I1
tRp532
(I3
S'|'
NNNI13
I1
I0
tbS'Nick Collison'
tRp533
F0.14499999999999999
sg2
(g3
(S'S15'
I0
I1
tRp534
(I3
S'|'
NNNI15
I1
I0
tbS'Wilson Chandler'
tRp535
F0.076999999999999999
sg2
(g3
(S'S14'
I0
I1
tRp536
(I3
S'|'
NNNI14
I1
I0
tbS'Kris Humphries'
tRp537
F0.115
sg2
(g3
(S'S14'
I0
I1
tRp538
(I3
S'|'
NNNI14
I1
I0
tbS'Josh McRoberts'
tRp539
F0.035999999999999997
sg2
(g3
(S'S14'
I0
I1
tRp540
(I3
S'|'
NNNI14
I1
I0
tbS'JaMychal Green'
tRp541
F0.13200000000000001
sg2
(g3
(S'S17'
I0
I1
tRp542
(I3
S'|'
NNNI17
I1
I0
tbS'LaMarcus Aldridge'
tRp543
F0.14899999999999999
sg2
(g3
(S'S12'
I0
I1
tRp544
(I3
S'|'
NNNI12
I1
I0
tbS'Wade Baldwin'
tRp545
F-0.041000000000000002
sg2
(g3
(S'S14'
I0
I1
tRp546
(I3
S'|'
NNNI14
I1
I0
tbS'Anthony Morrow'
tRp547
F0.19
sg2
(g3
(S'S13'
I0
I1
tRp548
(I3
S'|'
NNNI13
I1
I0
tbS'Deyonta Davis'
tRp549
F0.097000000000000003
sg2
(g3
(S'S10'
I0
I1
tRp550
(I3
S'|'
NNNI10
I1
I0
tbS'Kay Felder'
tRp551
F0.0080000000000000002
sg2
(g3
(S'S14'
I0
I1
tRp552
(I3
S'|'
NNNI14
I1
I0
tbS'Dewayne Dedmon'
tRp553
F0.189
sg2
(g3
(S'S12'
I0
I1
tRp554
(I3
S'|'
NNNI12
I1
I0
tbS'Luke Babbitt'
tRp555
F0.081000000000000003
sg2
(g3
(S'S13'
I0
I1
tRp556
(I3
S'|'
NNNI13
I1
I0
tbS'Brice Johnson'
tRp557
F-0.16500000000000001
sg2
(g3
(S'S12'
I0
I1
tRp558
(I3
S'|'
NNNI12
I1
I0
tbS'Kyle Singler'
tRp559
F0.034000000000000002
sg2
(g3
(S'S16'
I0
I1
tRp560
(I3
S'|'
NNNI16
I1
I0
tbS'Hassan Whiteside'
tRp561
F0.18099999999999999
sg2
(g3
(S'S13'
I0
I1
tRp562
(I3
S'|'
NNNI13
I1
I0
tbS'Larry Sanders'
tRp563
F-0.029000000000000001
sg2
(g3
(S'S14'
I0
I1
tRp564
(I3
S'|'
NNNI14
I1
I0
tbS'Justin Holiday'
tRp565
F0.072999999999999995
sg2
(g3
(S'S15'
I0
I1
tRp566
(I3
S'|'
NNNI15
I1
I0
tbS'Greivis Vasquez'
tRp567
F-0.0060000000000000001
sS'CJ Miles'
p568
F0.109
sg2
(g3
(S'S11'
I0
I1
tRp569
(I3
S'|'
NNNI11
I1
I0
tbS'C.J. Watson'
tRp570
F0.041000000000000002
sg2
(g3
(S'S14'
I0
I1
tRp571
(I3
S'|'
NNNI14
I1
I0
tbS'Ramon Sessions'
tRp572
F0.055
sg2
(g3
(S'S10'
I0
I1
tRp573
(I3
S'|'
NNNI10
I1
I0
tbS'Quincy Acy'
tRp574
F0.10199999999999999
sg2
(g3
(S'S11'
I0
I1
tRp575
(I3
S'|'
NNNI11
I1
I0
tbS'Ricky Rubio'
tRp576
F0.11899999999999999
sg2
(g3
(S'S8'
I0
I1
tRp577
(I3
S'|'
NNNI8
I1
I0
tbS'Rudy Gay'
tRp578
F0.086999999999999994
sg2
(g3
(S'S11'
I0
I1
tRp579
(I3
S'|'
NNNI11
I1
I0
tbS'Buddy Hield'
tRp580
F0.052999999999999999
sg2
(g3
(S'S12'
I0
I1
tRp581
(I3
S'|'
NNNI12
I1
I0
tbS'Danuel House'
tRp582
F0.16300000000000001
sg2
(g3
(S'S13'
I0
I1
tRp583
(I3
S'|'
NNNI13
I1
I0
tbS'Jahlil Okafor'
tRp584
F0.050000000000000003
sg2
(g3
(S'S12'
I0
I1
tRp585
(I3
S'|'
NNNI12
I1
I0
tbS'Jarrett Jack'
tRp586
F0.059999999999999998
sg2
(g3
(S'S14'
I0
I1
tRp587
(I3
S'|'
NNNI14
I1
I0
tbS'Garrett Temple'
tRp588
F0.060999999999999999
sg2
(g3
(S'S10'
I0
I1
tRp589
(I3
S'|'
NNNI10
I1
I0
tbS'Boris Diaw'
tRp590
F0.041000000000000002
sg2
(g3
(S'S11'
I0
I1
tRp591
(I3
S'|'
NNNI11
I1
I0
tbS'Jake Layman'
tRp592
F-0.053999999999999999
sg2
(g3
(S'S16'
I0
I1
tRp593
(I3
S'|'
NNNI16
I1
I0
tbS'Nicolas Brussino'
tRp594
F0.055
sg2
(g3
(S'S14'
I0
I1
tRp595
(I3
S'|'
NNNI14
I1
I0
tbS'Tim Quarterman'
tRp596
F-0.043999999999999997
sg2
(g3
(S'S11'
I0
I1
tRp597
(I3
S'|'
NNNI11
I1
I0
tbS'Dwyane Wade'
tRp598
F0.089999999999999997
sg2
(g3
(S'S13'
I0
I1
tRp599
(I3
S'|'
NNNI13
I1
I0
tbS'Jordan Mickey'
tRp600
F0.035999999999999997
sg2
(g3
(S'S11'
I0
I1
tRp601
(I3
S'|'
NNNI11
I1
I0
tbS'Joel Embiid'
tRp602
F0.11700000000000001
sg2
(g3
(S'S13'
I0
I1
tRp603
(I3
S'|'
NNNI13
I1
I0
tbS'Dragan Bender'
tRp604
F-0.029000000000000001
sg2
(g3
(S'S23'
I0
I1
tRp605
(I3
S'|'
NNNI23
I1
I0
tbS'Rondae Hollis-Jefferson'
tRp606
F0.070000000000000007
sg2
(g3
(S'S17'
I0
I1
tRp607
(I3
S'|'
NNNI17
I1
I0
tbS'Patrick Patterson'
tRp608
F0.10000000000000001
sg2
(g3
(S'S13'
I0
I1
tRp609
(I3
S'|'
NNNI13
I1
I0
tbS'Isaiah Canaan'
tRp610
F0.042000000000000003
sg2
(g3
(S'S14'
I0
I1
tRp611
(I3
S'|'
NNNI14
I1
I0
tbS'Gordon Hayward'
tRp612
F0.19900000000000001
sg2
(g3
(S'S15'
I0
I1
tRp613
(I3
S'|'
NNNI15
I1
I0
tbS'Marco Belinelli'
tRp614
F0.086999999999999994
sg2
(g3
(S'S12'
I0
I1
tRp615
(I3
S'|'
NNNI12
I1
I0
tbS'Ronnie Price'
tRp616
F0.002
sg2
(g3
(S'S11'
I0
I1
tRp617
(I3
S'|'
NNNI11
I1
I0
tbS'Rodney Hood'
tRp618
F0.078
sg2
(g3
(S'S15'
I0
I1
tRp619
(I3
S'|'
NNNI15
I1
I0
tbS'Michael Gbinije'
tRp620
F-0.13600000000000001
sg2
(g3
(S'S13'
I0
I1
tRp621
(I3
S'|'
NNNI13
I1
I0
tbS'Mike Dunleavy'
tRp622
F0.12
sg2
(g3
(S'S17'
I0
I1
tRp623
(I3
S'|'
NNNI17
I1
I0
tbS'Jonas Valanciunas'
tRp624
F0.183
sg2
(g3
(S'S13'
I0
I1
tRp625
(I3
S'|'
NNNI13
I1
I0
tbS'Kyle Anderson'
tRp626
F0.127
sg2
(g3
(S'S17'
I0
I1
tRp627
(I3
S'|'
NNNI17
I1
I0
tbS'Langston Galloway'
tRp628
F0.0070000000000000001
sg2
(g3
(S'S16'
I0
I1
tRp629
(I3
S'|'
NNNI16
I1
I0
tbS'Tomas Satoransky'
tRp630
F0.040000000000000001
sg2
(g3
(S'S15'
I0
I1
tRp631
(I3
S'|'
NNNI15
I1
I0
tbS'Malcolm Brogdon'
tRp632
F0.10000000000000001
sg2
(g3
(S'S9'
I0
I1
tRp633
(I3
S'|'
NNNI9
I1
I0
tbS'Ian Clark'
tRp634
F0.099000000000000005
sg2
(g3
(S'S10'
I0
I1
tRp635
(I3
S'|'
NNNI10
I1
I0
tbS'Shawn Long'
tRp636
F0.19500000000000001
sg2
(g3
(S'S10'
I0
I1
tRp637
(I3
S'|'
NNNI10
I1
I0
tbS'Ben Bentil'
tRp638
F-0.47299999999999998
sg2
(g3
(S'S13'
I0
I1
tRp639
(I3
S'|'
NNNI13
I1
I0
tbS'Bruno Caboclo'
tRp640
F0.083000000000000004
sg2
(g3
(S'S10'
I0
I1
tRp641
(I3
S'|'
NNNI10
I1
I0
tbS'Seth Curry'
tRp642
F0.11
sg2
(g3
(S'S20'
I0
I1
tRp643
(I3
S'|'
NNNI20
I1
I0
tbS'James Michael McAdoo'
tRp644
F0.11700000000000001
sg2
(g3
(S'S14'
I0
I1
tRp645
(I3
S'|'
NNNI14
I1
I0
tbS'Brandan Wright'
tRp646
F0.17699999999999999
sg2
(g3
(S'S15'
I0
I1
tRp647
(I3
S'|'
NNNI15
I1
I0
tbS"Johnny O'Bryant"
tRp648
F0.078
sg2
(g3
(S'S16'
I0
I1
tRp649
(I3
S'|'
NNNI16
I1
I0
tbS'Bojan Bogdanovic'
tRp650
F0.10299999999999999
sg2
(g3
(S'S11'
I0
I1
tRp651
(I3
S'|'
NNNI11
I1
I0
tbS'Steve Novak'
tRp652
F-0.074999999999999997
sg2
(g3
(S'S9'
I0
I1
tRp653
(I3
S'|'
NNNI9
I1
I0
tbS'Omer Asik'
tRp654
F0.10000000000000001
sg2
(g3
(S'S10'
I0
I1
tRp655
(I3
S'|'
NNNI10
I1
I0
tbS'Dante Exum'
tRp656
F0.045999999999999999
sg2
(g3
(S'S16'
I0
I1
tRp657
(I3
S'|'
NNNI16
I1
I0
tbS"D'Angelo Russell"
tRp658
F0.033000000000000002
sg2
(g3
(S'S20'
I0
I1
tRp659
(I3
S'|'
NNNI20
I1
I0
tbS'Georgios Papagiannis'
tRp660
F0.057000000000000002
sg2
(g3
(S'S16'
I0
I1
tRp661
(I3
S'|'
NNNI16
I1
I0
tbS'Dante Cunningham'
tRp662
F0.087999999999999995
sg2
(g3
(S'S16'
I0
I1
tRp663
(I3
S'|'
NNNI16
I1
I0
tbS'Tristan Thompson'
tRp664
F0.14899999999999999
sg2
(g3
(S'S15'
I0
I1
tRp665
(I3
S'|'
NNNI15
I1
I0
tbS'Marcelo Huertas'
tRp666
F-0.025000000000000001
sg2
(g3
(S'S12'
I0
I1
tRp667
(I3
S'|'
NNNI12
I1
I0
tbS'Kevon Looney'
tRp668
F0.155
sg2
(g3
(S'S14'
I0
I1
tRp669
(I3
S'|'
NNNI14
I1
I0
tbS'Semaj Christon'
tRp670
F0.0060000000000000001
sg2
(g3
(S'S15'
I0
I1
tRp671
(I3
S'|'
NNNI15
I1
I0
tbS'Michael Beasley'
tRp672
F0.091999999999999998
sg2
(g3
(S'S17'
I0
I1
tRp673
(I3
S'|'
NNNI17
I1
I0
tbS'Marreese Speights'
tRp674
F0.155
sg2
(g3
(S'S12'
I0
I1
tRp675
(I3
S'|'
NNNI12
I1
I0
tbS'Damjan Rudez'
tRp676
F0.0080000000000000002
sg2
(g3
(S'S12'
I0
I1
tRp677
(I3
S'|'
NNNI12
I1
I0
tbS'Mike Muscala'
tRp678
F0.13200000000000001
sg2
(g3
(S'S14'
I0
I1
tRp679
(I3
S'|'
NNNI14
I1
I0
tbS'Pierre Jackson'
tRp680
F0.021000000000000001
sg2
(g3
(S'S13'
I0
I1
tRp681
(I3
S'|'
NNNI13
I1
I0
tbS'Tobias Harris'
tRp682
F0.128
sg2
(g3
(S'S17'
I0
I1
tRp683
(I3
S'|'
NNNI17
I1
I0
tbS'Cristiano Felicio'
tRp684
F0.158
sg2
(g3
(S'S12'
I0
I1
tRp685
(I3
S'|'
NNNI12
I1
I0
tbS'Lou Williams'
tRp686
F0.096000000000000002
sg2
(g3
(S'S11'
I0
I1
tRp687
(I3
S'|'
NNNI11
I1
I0
tbS'Eric Gordon'
tRp688
F0.079000000000000001
sg2
(g3
(S'S16'
I0
I1
tRp689
(I3
S'|'
NNNI16
I1
I0
tbS'Rakeem Christmas'
tRp690
F0.099000000000000005
sg2
(g3
(S'S11'
I0
I1
tRp691
(I3
S'|'
NNNI11
I1
I0
tbS'Ian Mahinmi'
tRp692
F0.123
sg2
(g3
(S'S12'
I0
I1
tRp693
(I3
S'|'
NNNI12
I1
I0
tbS'Allen Crabbe'
tRp694
F0.088999999999999996
sg2
(g3
(S'S12'
I0
I1
tRp695
(I3
S'|'
NNNI12
I1
I0
tbS'Clint Capela'
tRp696
F0.184
sg2
(g3
(S'S11'
I0
I1
tRp697
(I3
S'|'
NNNI11
I1
I0
tbS'Danny Green'
tRp698
F0.089999999999999997
sg2
(g3
(S'S12'
I0
I1
tRp699
(I3
S'|'
NNNI12
I1
I0
tbS'Aaron Gordon'
tRp700
F0.076999999999999999
sg2
(g3
(S'S16'
I0
I1
tRp701
(I3
S'|'
NNNI16
I1
I0
tbS'Brandon Jennings'
tRp702
F0.025000000000000001
sg2
(g3
(S'S12'
I0
I1
tRp703
(I3
S'|'
NNNI12
I1
I0
tbS'Wayne Selden'
tRp704
F-0.002
sg2
(g3
(S'S17'
I0
I1
tRp705
(I3
S'|'
NNNI17
I1
I0
tbS'Russell Westbrook'
tRp706
F0.224
sg2
(g3
(S'S10'
I0
I1
tRp707
(I3
S'|'
NNNI10
I1
I0
tbS'Trey Lyles'
tRp708
F0.031
sg2
(g3
(S'S13'
I0
I1
tRp709
(I3
S'|'
NNNI13
I1
I0
tbS'Dirk Nowitzki'
tRp710
F0.084000000000000005
sg2
(g3
(S'S16'
I0
I1
tRp711
(I3
S'|'
NNNI16
I1
I0
tbS'Luc Mbah a Moute'
tRp712
F0.084000000000000005
sg2
(g3
(S'S13'
I0
I1
tRp713
(I3
S'|'
NNNI13
I1
I0
tbS'DeMar DeRozan'
tRp714
F0.16600000000000001
sg2
(g3
(S'S19'
I0
I1
tRp715
(I3
S'|'
NNNI19
I1
I0
tbS'Dorian Finney-Smith'
tRp716
F0.041000000000000002
sg2
(g3
(S'S15'
I0
I1
tRp717
(I3
S'|'
NNNI15
I1
I0
tbS'Wayne Ellington'
tRp718
F0.105
sS'Kelly Oubre Jr.'
p719
F0.060999999999999999
sg2
(g3
(S'S14'
I0
I1
tRp720
(I3
S'|'
NNNI14
I1
I0
tbS'Shabazz Napier'
tRp721
F0.059999999999999998
sg2
(g3
(S'S13'
I0
I1
tRp722
(I3
S'|'
NNNI13
I1
I0
tbS'Mason Plumlee'
tRp723
F0.107
sg2
(g3
(S'S11'
I0
I1
tRp724
(I3
S'|'
NNNI11
I1
I0
tbS'Matt Barnes'
tRp725
F0.115
sg2
(g3
(S'S12'
I0
I1
tRp726
(I3
S'|'
NNNI12
I1
I0
tbS'Lance Thomas'
tRp727
F0.045999999999999999
sg2
(g3
(S'S15'
I0
I1
tRp728
(I3
S'|'
NNNI15
I1
I0
tbS'Emmanuel Mudiay'
tRp729
F0.0060000000000000001
sg2
(g3
(S'S13'
I0
I1
tRp730
(I3
S'|'
NNNI13
I1
I0
tbS'Maurice Ndour'
tRp731
F0.058999999999999997
sg2
(g3
(S'S13'
I0
I1
tRp732
(I3
S'|'
NNNI13
I1
I0
tbS'Dahntay Jones'
tRp733
F-0.029999999999999999
sg2
(g3
(S'S15'
I0
I1
tRp734
(I3
S'|'
NNNI15
I1
I0
tbS'Reggie Williams'
tRp735
F0.098000000000000004
sg2
(g3
(S'S13'
I0
I1
tRp736
(I3
S'|'
NNNI13
I1
I0
tbS'Iman Shumpert'
tRp737
F0.050000000000000003
sg2
(g3
(S'S16'
I0
I1
tRp738
(I3
S'|'
NNNI16
I1
I0
tbS'Andrew Nicholson'
tRp739
F-0.029999999999999999
sS'JJ Redick'
p740
F0.105
sg2
(g3
(S'S15'
I0
I1
tRp741
(I3
S'|'
NNNI15
I1
I0
tbS'Harrison Barnes'
tRp742
F0.078
sg2
(g3
(S'S13'
I0
I1
tRp743
(I3
S'|'
NNNI13
I1
I0
tbS'Ryan Anderson'
tRp744
F0.11700000000000001
sg2
(g3
(S'S14'
I0
I1
tRp745
(I3
S'|'
NNNI14
I1
I0
tbS'Henry Ellenson'
tRp746
F-0.070999999999999994
sg2
(g3
(S'S15'
I0
I1
tRp747
(I3
S'|'
NNNI15
I1
I0
tbS'Dennis Schroder'
tRp748
F0.070999999999999994
sg2
(g3
(S'S15'
I0
I1
tRp749
(I3
S'|'
NNNI15
I1
I0
tbS'Skal Labissiere'
tRp750
F0.099000000000000005
sg2
(g3
(S'S17'
I0
I1
tRp751
(I3
S'|'
NNNI17
I1
I0
tbS'Joffrey Lauvergne'
tRp752
F0.025000000000000001
sg2
(g3
(S'S11'
I0
I1
tRp753
(I3
S'|'
NNNI11
I1
I0
tbS'Serge Ibaka'
tRp754
F0.085000000000000006
sg2
(g3
(S'S14'
I0
I1
tRp755
(I3
S'|'
NNNI14
I1
I0
tbS'Tyson Chandler'
tRp756
F0.151
sg2
(g3
(S'S16'
I0
I1
tRp757
(I3
S'|'
NNNI16
I1
I0
tbS'Isaiah Whitehead'
tRp758
F-0.023
sg2
(g3
(S'S14'
I0
I1
tRp759
(I3
S'|'
NNNI14
I1
I0
tbS'Jerryd Bayless'
tRp760
F-0.067000000000000004
sg2
(g3
(S'S17'
I0
I1
tRp761
(I3
S'|'
NNNI17
I1
I0
tbS'Richard Jefferson'
tRp762
F0.063
sg2
(g3
(S'S13'
I0
I1
tRp763
(I3
S'|'
NNNI13
I1
I0
tbS'Arinze Onuaku'
tRp764
F-0.0050000000000000001
sg2
(g3
(S'S15'
I0
I1
tRp765
(I3
S'|'
NNNI15
I1
I0
tbS'Marquese Chriss'
tRp766
F0.050000000000000003
sg2
(g3
(S'S10'
I0
I1
tRp767
(I3
S'|'
NNNI10
I1
I0
tbS'Ryan Kelly'
tRp768
F0.029000000000000001
sg2
(g3
(S'S17'
I0
I1
tRp769
(I3
S'|'
NNNI17
I1
I0
tbS'Spencer Dinwiddie'
tRp770
F0.10100000000000001
sg2
(g3
(S'S14'
I0
I1
tRp771
(I3
S'|'
NNNI14
I1
I0
tbS'Victor Oladipo'
tRp772
F0.085000000000000006
sg2
(g3
(S'S10'
I0
I1
tRp773
(I3
S'|'
NNNI10
I1
I0
tbS'Tony Snell'
tRp774
F0.070999999999999994
sg2
(g3
(S'S12'
I0
I1
tRp775
(I3
S'|'
NNNI12
I1
I0
tbS'Dion Waiters'
tRp776
F0.057000000000000002
sg2
(g3
(S'S13'
I0
I1
tRp777
(I3
S'|'
NNNI13
I1
I0
tbS'Kent Bazemore'
tRp778
F0.051999999999999998
sg2
(g3
(S'S12'
I0
I1
tRp779
(I3
S'|'
NNNI12
I1
I0
tbS'Nikola Jokic'
tRp780
F0.22800000000000001
sg2
(g3
(S'S15'
I0
I1
tRp781
(I3
S'|'
NNNI15
I1
I0
tbS'Nemanja Bjelica'
tRp782
F0.058999999999999997
sg2
(g3
(S'S15'
I0
I1
tRp783
(I3
S'|'
NNNI15
I1
I0
tbS'Rodney McGruder'
tRp784
F0.071999999999999995
sg2
(g3
(S'S13'
I0
I1
tRp785
(I3
S'|'
NNNI13
I1
I0
tbS'Klay Thompson'
tRp786
F0.129
sg2
(g3
(S'S13'
I0
I1
tRp787
(I3
S'|'
NNNI13
I1
I0
tbS'Terrence Ross'
tRp788
F0.036999999999999998
sg2
(g3
(S'S11'
I0
I1
tRp789
(I3
S'|'
NNNI11
I1
I0
tbS'R.J. Hunter'
tRp790
F-0.087999999999999995
sg2
(g3
(S'S16'
I0
I1
tRp791
(I3
S'|'
NNNI16
I1
I0
tbS'Gerald Henderson'
tRp792
F0.058999999999999997
sg2
(g3
(S'S12'
I0
I1
tRp793
(I3
S'|'
NNNI12
I1
I0
tbS'Damian Jones'
tRp794
F0.017999999999999999
sg2
(g3
(S'S14'
I0
I1
tRp795
(I3
S'|'
NNNI14
I1
I0
tbS'Andre Drummond'
tRp796
F0.13300000000000001
sg2
(g3
(S'S13'
I0
I1
tRp797
(I3
S'|'
NNNI13
I1
I0
tbS'Nicolas Batum'
tRp798
F0.084000000000000005
sg2
(g3
(S'S16'
I0
I1
tRp799
(I3
S'|'
NNNI16
I1
I0
tbS'Montrezl Harrell'
tRp800
F0.183
sg2
(g3
(S'S13'
I0
I1
tRp801
(I3
S'|'
NNNI13
I1
I0
tbS'Arron Afflalo'
tRp802
F0.042999999999999997
sg2
(g3
(S'S16'
I0
I1
tRp803
(I3
S'|'
NNNI16
I1
I0
tbS'Domantas Sabonis'
tRp804
F0.021999999999999999
sg2
(g3
(S'S11'
I0
I1
tRp805
(I3
S'|'
NNNI11
I1
I0
tbS'Cody Zeller'
tRp806
F0.157
sg2
(g3
(S'S13'
I0
I1
tRp807
(I3
S'|'
NNNI13
I1
I0
tbS'Marcus Morris'
tRp808
F0.071999999999999995
sg2
(g3
(S'S10'
I0
I1
tRp809
(I3
S'|'
NNNI10
I1
I0
tbS'Quinn Cook'
tRp810
F0.11
sg2
(g3
(S'S17'
I0
I1
tRp811
(I3
S'|'
NNNI17
I1
I0
tbS'Demetrius Jackson'
tRp812
F0.38600000000000001
sg2
(g3
(S'S11'
I0
I1
tRp813
(I3
S'|'
NNNI11
I1
I0
tbS'Bobby Brown'
tRp814
F0.040000000000000001
sg2
(g3
(S'S12'
I0
I1
tRp815
(I3
S'|'
NNNI12
I1
I0
tbS'Derrick Rose'
tRp816
F0.068000000000000005
sg2
(g3
(S'S12'
I0
I1
tRp817
(I3
S'|'
NNNI12
I1
I0
tbS'Myles Turner'
tRp818
F0.151
sg2
(g3
(S'S10'
I0
I1
tRp819
(I3
S'|'
NNNI10
I1
I0
tbS'Luis Scola'
tRp820
F0.082000000000000003
sg2
(g3
(S'S13'
I0
I1
tRp821
(I3
S'|'
NNNI13
I1
I0
tbS'Brian Roberts'
tRp822
F0.028000000000000001
sg2
(g3
(S'S13'
I0
I1
tRp823
(I3
S'|'
NNNI13
I1
I0
tbS'Marcin Gortat'
tRp824
F0.127
sg2
(g3
(S'S12'
I0
I1
tRp825
(I3
S'|'
NNNI12
I1
I0
tbS'Jaylen Brown'
tRp826
F0.052999999999999999
sg2
(g3
(S'S13'
I0
I1
tRp827
(I3
S'|'
NNNI13
I1
I0
tbS'Kawhi Leonard'
tRp828
F0.26400000000000001
sg2
(g3
(S'S12'
I0
I1
tRp829
(I3
S'|'
NNNI12
I1
I0
tbS'Al Jefferson'
tRp830
F0.11899999999999999
sg2
(g3
(S'S13'
I0
I1
tRp831
(I3
S'|'
NNNI13
I1
I0
tbS'Channing Frye'
tRp832
F0.125
sg2
(g3
(S'S13'
I0
I1
tRp833
(I3
S'|'
NNNI13
I1
I0
tbS'Anthony Brown'
tRp834
F0.075999999999999998
sg2
(g3
(S'S12'
I0
I1
tRp835
(I3
S'|'
NNNI12
I1
I0
tbS'Devin Harris'
tRp836
F0.096000000000000002
sg2
(g3
(S'S15'
I0
I1
tRp837
(I3
S'|'
NNNI15
I1
I0
tbS'Darren Collison'
tRp838
F0.090999999999999998
sg2
(g3
(S'S11'
I0
I1
tRp839
(I3
S'|'
NNNI11
I1
I0
tbS'C.J. Wilcox'
tRp840
F-0.089999999999999997
sg2
(g3
(S'S11'
I0
I1
tRp841
(I3
S'|'
NNNI11
I1
I0
tbS'Edy Tavares'
tRp842
F0.183
sg2
(g3
(S'S15'
I0
I1
tRp843
(I3
S'|'
NNNI15
I1
I0
tbS'DeMarre Carroll'
tRp844
F0.097000000000000003
sg2
(g3
(S'S12'
I0
I1
tRp845
(I3
S'|'
NNNI12
I1
I0
tbS'Nerlens Noel'
tRp846
F0.17799999999999999
sg2
(g3
(S'S10'
I0
I1
tRp847
(I3
S'|'
NNNI10
I1
I0
tbS'Thon Maker'
tRp848
F0.113
sg2
(g3
(S'S13'
I0
I1
tRp849
(I3
S'|'
NNNI13
I1
I0
tbS'Jabari Parker'
tRp850
F0.112
sg2
(g3
(S'S14'
I0
I1
tRp851
(I3
S'|'
NNNI14
I1
I0
tbS'Andre Iguodala'
tRp852
F0.16700000000000001
sg2
(g3
(S'S15'
I0
I1
tRp853
(I3
S'|'
NNNI15
I1
I0
tbS'Stanley Johnson'
tRp854
F0.012
sg2
(g3
(S'S10'
I0
I1
tRp855
(I3
S'|'
NNNI10
I1
I0
tbS'Alonzo Gee'
tRp856
F-0.032000000000000001
sg2
(g3
(S'S13'
I0
I1
tRp857
(I3
S'|'
NNNI13
I1
I0
tbS'Davis Bertans'
tRp858
F0.13500000000000001
sS'Taurean Prince'
p859
F0.053999999999999999
sg2
(g3
(S'S13'
I0
I1
tRp860
(I3
S'|'
NNNI13
I1
I0
tbS'Evan Fournier'
tRp861
F0.058999999999999997
sg2
(g3
(S'S13'
I0
I1
tRp862
(I3
S'|'
NNNI13
I1
I0
tbS'Mario Hezonja'
tRp863
F-0.033000000000000002
sg2
(g3
(S'S15'
I0
I1
tRp864
(I3
S'|'
NNNI15
I1
I0
tbS'Justin Hamilton'
tRp865
F0.084000000000000005
sg2
(g3
(S'S12'
I0
I1
tRp866
(I3
S'|'
NNNI12
I1
I0
tbS'Jared Dudley'
tRp867
F0.064000000000000001
sg2
(g3
(S'S11'
I0
I1
tRp868
(I3
S'|'
NNNI11
I1
I0
tbS'John Henson'
tRp869
F0.11600000000000001
sg2
(g3
(S'S10'
I0
I1
tRp870
(I3
S'|'
NNNI10
I1
I0
tbS'Trey Burke'
tRp871
F0.035999999999999997
sg2
(g3
(S'S14'
I0
I1
tRp872
(I3
S'|'
NNNI14
I1
I0
tbS'Andre Roberson'
tRp873
F0.085000000000000006
sg2
(g3
(S'S12'
I0
I1
tRp874
(I3
S'|'
NNNI12
I1
I0
tbS'Jusuf Nurkic'
tRp875
F0.11600000000000001
sg2
(g3
(S'S15'
I0
I1
tRp876
(I3
S'|'
NNNI15
I1
I0
tbS'Jonathan Gibson'
tRp877
F-0.029999999999999999
sg2
(g3
(S'S13'
I0
I1
tRp878
(I3
S'|'
NNNI13
I1
I0
tbS'Jonas Jerebko'
tRp879
F0.080000000000000002
sg2
(g3
(S'S11'
I0
I1
tRp880
(I3
S'|'
NNNI11
I1
I0
tbS'Jason Smith'
tRp881
F0.10299999999999999
sg2
(g3
(S'S14'
I0
I1
tRp882
(I3
S'|'
NNNI14
I1
I0
tbS'Aaron Harrison'
tRp883
F-0.14599999999999999
sg2
(g3
(S'S15'
I0
I1
tRp884
(I3
S'|'
NNNI15
I1
I0
tbS'Markieff Morris'
tRp885
F0.083000000000000004
sg2
(g3
(S'S8'
I0
I1
tRp886
(I3
S'|'
NNNI8
I1
I0
tbS'Alex Len'
tRp887
F0.090999999999999998
sg2
(g3
(S'S14'
I0
I1
tRp888
(I3
S'|'
NNNI14
I1
I0
tbS'Brandon Ingram'
tRp889
F-0.0070000000000000001
sg2
(g3
(S'S20'
I0
I1
tRp890
(I3
S'|'
NNNI20
I1
I0
tbS'Mindaugas Kuzminskas'
tRp891
F0.055
sg2
(g3
(S'S13'
I0
I1
tRp892
(I3
S'|'
NNNI13
I1
I0
tbS'Dwight Howard'
tRp893
F0.18099999999999999
sg2
(g3
(S'S19'
I0
I1
tRp894
(I3
S'|'
NNNI19
I1
I0
tbS'Matthew Dellavedova'
tRp895
F0.029000000000000001
sg2
(g3
(S'S11'
I0
I1
tRp896
(I3
S'|'
NNNI11
I1
I0
tbS'Patty Mills'
tRp897
F0.13900000000000001
sg2
(g3
(S'S11'
I0
I1
tRp898
(I3
S'|'
NNNI11
I1
I0
tbS'Greg Monroe'
tRp899
F0.14699999999999999
sg2
(g3
(S'S19'
I0
I1
tRp900
(I3
S'|'
NNNI19
I1
I0
tbS'Marcus Georges-Hunt'
tRp901
F0.107
sg2
(g3
(S'S16'
I0
I1
tRp902
(I3
S'|'
NNNI16
I1
I0
tbS'Shabazz Muhammad'
tRp903
F0.085999999999999993
sg2
(g3
(S'S18'
I0
I1
tRp904
(I3
S'|'
NNNI18
I1
I0
tbS'Kristaps Porzingis'
tRp905
F0.10000000000000001
sg2
(g3
(S'S11'
I0
I1
tRp906
(I3
S'|'
NNNI11
I1
I0
tbS'Bryn Forbes'
tRp907
F0.014
sg2
(g3
(S'S16'
I0
I1
tRp908
(I3
S'|'
NNNI16
I1
I0
tbS'Chandler Parsons'
tRp909
F0.014999999999999999
sg2
(g3
(S'S14'
I0
I1
tRp910
(I3
S'|'
NNNI14
I1
I0
tbS'Chris Andersen'
tRp911
F0.10199999999999999
sS'Derrick Jones, Jr.'
p912
F0.098000000000000004
sg2
(g3
(S'S12'
I0
I1
tRp913
(I3
S'|'
NNNI12
I1
I0
tbS'James Harden'
tRp914
F0.245
sg2
(g3
(S'S12'
I0
I1
tRp915
(I3
S'|'
NNNI12
I1
I0
tbS'Gerald Green'
tRp916
F0.050000000000000003
sg2
(g3
(S'S14'
I0
I1
tRp917
(I3
S'|'
NNNI14
I1
I0
tbS'Nikola Mirotic'
tRp918
F0.107
sg2
(g3
(S'S9'
I0
I1
tRp919
(I3
S'|'
NNNI9
I1
I0
tbS'Joe Young'
tRp920
F-0.021999999999999999
sg2
(g3
(S'S15'
I0
I1
tRp921
(I3
S'|'
NNNI15
I1
I0
tbS'Jordan Crawford'
tRp922
F0.10199999999999999
sg2
(g3
(S'S12'
I0
I1
tRp923
(I3
S'|'
NNNI12
I1
I0
tbS'Jakob Poeltl'
tRp924
F0.125
sg2
(g3
(S'S13'
I0
I1
tRp925
(I3
S'|'
NNNI13
I1
I0
tbS'D.J. Augustin'
tRp926
F0.037999999999999999
sg2
(g3
(S'S14'
I0
I1
tRp927
(I3
S'|'
NNNI14
I1
I0
tbS'Treveon Graham'
tRp928
F0.108
sg2
(g3
(S'S12'
I0
I1
tRp929
(I3
S'|'
NNNI12
I1
I0
tbS'Jarell Eddie'
tRp930
F0.053999999999999999
sg2
(g3
(S'S12'
I0
I1
tRp931
(I3
S'|'
NNNI12
I1
I0
tbS'Andrew Bogut'
tRp932
F0.02
sg2
(g3
(S'S14'
I0
I1
tRp933
(I3
S'|'
NNNI14
I1
I0
tbS'Derrick Favors'
tRp934
F0.109
sg2
(g3
(S'S11'
I0
I1
tRp935
(I3
S'|'
NNNI11
I1
I0
tbS'Dario Saric'
tRp936
F0.023
sg2
(g3
(S'S12'
I0
I1
tRp937
(I3
S'|'
NNNI12
I1
I0
tbS'Jrue Holiday'
tRp938
F0.084000000000000005
sg2
(g3
(S'S14'
I0
I1
tRp939
(I3
S'|'
NNNI14
I1
I0
tbS'Terrence Jones'
tRp940
F-0.312
sg2
(g3
(S'S16'
I0
I1
tRp941
(I3
S'|'
NNNI16
I1
I0
tbS'Boban Marjanovic'
tRp942
F0.28000000000000003
sg2
(g3
(S'S10'
I0
I1
tRp943
(I3
S'|'
NNNI10
I1
I0
tbS'Jeremy Lin'
tRp944
F0.11600000000000001
sg2
(g3
(S'S11'
I0
I1
tRp945
(I3
S'|'
NNNI11
I1
I0
tbS'Gary Harris'
tRp946
F0.124
sg2
(g3
(S'S13'
I0
I1
tRp947
(I3
S'|'
NNNI13
I1
I0
tbS'Alexis Ajinca'
tRp948
F0.080000000000000002
sg2
(g3
(S'S13'
I0
I1
tRp949
(I3
S'|'
NNNI13
I1
I0
tbS'Rashad Vaughn'
tRp950
F-0.0050000000000000001
sg2
(g3
(S'S16'
I0
I1
tRp951
(I3
S'|'
NNNI16
I1
I0
tbS'Robert Covington'
tRp952
F0.070999999999999994
sg2
(g3
(S'S11'
I0
I1
tRp953
(I3
S'|'
NNNI11
I1
I0
tbS'Paul George'
tRp954
F0.126
sg2
(g3
(S'S12'
I0
I1
tRp955
(I3
S'|'
NNNI12
I1
I0
tbS'Bobby Portis'
tRp956
F0.114
sg2
(g3
(S'S14'
I0
I1
tRp957
(I3
S'|'
NNNI14
I1
I0
tbS'Christian Wood'
tRp958
F0.125
sg2
(g3
(S'S15'
I0
I1
tRp959
(I3
S'|'
NNNI15
I1
I0
tbS'Leandro Barbosa'
tRp960
F0.031
s.